---
triple:          'arm64-apple-darwin'
binary-path:     sim_debug
relocations:
  - { offset: 0x19, size: 0x8, addend: 0x0, symName: __ZnwmPv, symObjAddr: 0x0, symBinAddr: 0x100004E08, symSize: 0x18 }
  - { offset: 0xB236, size: 0x8, addend: 0x0, symName: __Z11deposit_tscRKSt6vectorISt5arrayIdLm3EESaIS1_EERKS_IdSaIdEEidRKNSt7__cxx1112basic_stringIcSt11char_traitsIcESaIcEEE, symObjAddr: 0x790, symBinAddr: 0x100005598, symSize: 0x1E0 }
  - { offset: 0xB29D, size: 0x8, addend: 0x0, symName: __Z11deposit_tscRKSt6vectorISt5arrayIdLm3EESaIS1_EERKS_IdSaIdEEidRKNSt7__cxx1112basic_stringIcSt11char_traitsIcESaIcEEE._omp_fn.0, symObjAddr: 0x3F38, symBinAddr: 0x100008D40, symSize: 0x5F0 }
  - { offset: 0xB572, size: 0x8, addend: 0x0, symName: __ZZ11deposit_tscRKSt6vectorISt5arrayIdLm3EESaIS1_EERKS_IdSaIdEEidRKNSt7__cxx1112basic_stringIcSt11char_traitsIcESaIcEEEENKUldE_clEd, symObjAddr: 0x690, symBinAddr: 0x100005498, symSize: 0x90 }
  - { offset: 0xB7D6, size: 0x8, addend: 0x0, symName: __Z11deposit_ngpRKSt6vectorISt5arrayIdLm3EESaIS1_EERKS_IdSaIdEEidRKNSt7__cxx1112basic_stringIcSt11char_traitsIcESaIcEEE, symObjAddr: 0x4C0, symBinAddr: 0x1000052C8, symSize: 0x1D0 }
  - { offset: 0xB83D, size: 0x8, addend: 0x0, symName: __Z11deposit_ngpRKSt6vectorISt5arrayIdLm3EESaIS1_EERKS_IdSaIdEEidRKNSt7__cxx1112basic_stringIcSt11char_traitsIcESaIcEEE._omp_fn.0, symObjAddr: 0x3B1C, symBinAddr: 0x100008924, symSize: 0x41C }
  - { offset: 0xBBA2, size: 0x8, addend: 0x0, symName: __Z11deposit_cicRKSt6vectorISt5arrayIdLm3EESaIS1_EERKS_IdSaIdEEidRKNSt7__cxx1112basic_stringIcSt11char_traitsIcESaIcEEE, symObjAddr: 0x314, symBinAddr: 0x10000511C, symSize: 0x1AC }
  - { offset: 0xBC09, size: 0x8, addend: 0x0, symName: __Z11deposit_cicRKSt6vectorISt5arrayIdLm3EESaIS1_EERKS_IdSaIdEEidRKNSt7__cxx1112basic_stringIcSt11char_traitsIcESaIcEEE._omp_fn.0, symObjAddr: 0x3438, symBinAddr: 0x100008240, symSize: 0x6E4 }
  - { offset: 0xC16D, size: 0x8, addend: 0x0, symName: __ZNSt19_UninitDestroyGuardIPSt6vectorISt4pairI11IndexTripledESaIS3_EEvE7releaseEv, symObjAddr: 0x341C, symBinAddr: 0x100008224, symSize: 0x1C }
  - { offset: 0xC191, size: 0x8, addend: 0x0, symName: __ZSt10_ConstructISt6vectorISt4pairI11IndexTripledESaIS3_EEJEEvPT_DpOT0_, symObjAddr: 0x33BC, symBinAddr: 0x1000081C4, symSize: 0x60 }
  - { offset: 0xC1EA, size: 0x8, addend: 0x0, symName: __ZNSt19_UninitDestroyGuardIPSt6vectorISt4pairI11IndexTripledESaIS3_EEvED1Ev, symObjAddr: 0x3364, symBinAddr: 0x10000816C, symSize: 0x58 }
  - { offset: 0xC232, size: 0x8, addend: 0x0, symName: __ZNSt19_UninitDestroyGuardIPSt6vectorISt4pairI11IndexTripledESaIS3_EEvEC1ERS6_, symObjAddr: 0x3330, symBinAddr: 0x100008138, symSize: 0x34 }
  - { offset: 0xC25E, size: 0x8, addend: 0x0, symName: __ZNSt15__new_allocatorISt6vectorISt4pairI11IndexTripledESaIS3_EEE8allocateEmPKv, symObjAddr: 0x32A0, symBinAddr: 0x1000080A8, symSize: 0x90 }
  - { offset: 0xC2E0, size: 0x8, addend: 0x0, symName: __ZNSt19_UninitDestroyGuardIPdvE7releaseEv, symObjAddr: 0x3284, symBinAddr: 0x10000808C, symSize: 0x1C }
  - { offset: 0xC304, size: 0x8, addend: 0x0, symName: __ZSt10_ConstructIdJRKdEEvPT_DpOT0_, symObjAddr: 0x3224, symBinAddr: 0x10000802C, symSize: 0x60 }
  - { offset: 0xC3A9, size: 0x8, addend: 0x0, symName: __ZNSt19_UninitDestroyGuardIPdvED1Ev, symObjAddr: 0x31CC, symBinAddr: 0x100007FD4, symSize: 0x58 }
  - { offset: 0xC3F1, size: 0x8, addend: 0x0, symName: __ZNSt19_UninitDestroyGuardIPdvEC1ERS0_, symObjAddr: 0x3198, symBinAddr: 0x100007FA0, symSize: 0x34 }
  - { offset: 0xC41D, size: 0x8, addend: 0x0, symName: __ZNSt15__new_allocatorIdE8allocateEmPKv, symObjAddr: 0x311C, symBinAddr: 0x100007F24, symSize: 0x7C }
  - { offset: 0xC4D7, size: 0x8, addend: 0x0, symName: __ZNSt12_Vector_baseISt4pairI11IndexTripledESaIS2_EE12_Vector_implC1ERKS3_, symObjAddr: 0x30D0, symBinAddr: 0x100007ED8, symSize: 0x4C }
  - { offset: 0xC59F, size: 0x8, addend: 0x0, symName: __ZSt19__relocate_object_aISt4pairI11IndexTripledES2_SaIS2_EEvPT_PT0_RT1_, symObjAddr: 0x2FDC, symBinAddr: 0x100007DE4, symSize: 0xF4 }
  - { offset: 0xC78E, size: 0x8, addend: 0x0, symName: __ZNSt27__uninitialized_default_n_1ILb0EE18__uninit_default_nIPSt6vectorISt4pairI11IndexTripledESaIS5_EEmEET_S9_T0_, symObjAddr: 0x2F60, symBinAddr: 0x100007D68, symSize: 0x7C }
  - { offset: 0xC840, size: 0x8, addend: 0x0, symName: __ZSt18__do_uninit_fill_nIPdmdET_S1_T0_RKT1_, symObjAddr: 0x2ED0, symBinAddr: 0x100007CD8, symSize: 0x90 }
  - { offset: 0xC98E, size: 0x8, addend: 0x0, symName: __ZNSt4pairI11IndexTripledEC1IS0_dLb1EEEOT_OT0_, symObjAddr: 0x2E7C, symBinAddr: 0x100007C84, symSize: 0x54 }
  - { offset: 0xCA18, size: 0x8, addend: 0x0, symName: __ZNSt15__new_allocatorISt6vectorISt4pairI11IndexTripledESaIS3_EEE10deallocateEPS5_m, symObjAddr: 0x2E40, symBinAddr: 0x100007C48, symSize: 0x3C }
  - { offset: 0xCA5E, size: 0x8, addend: 0x0, symName: __ZNSt15__new_allocatorIdE10deallocateEPdm, symObjAddr: 0x2E10, symBinAddr: 0x100007C18, symSize: 0x30 }
  - { offset: 0xCAA4, size: 0x8, addend: 0x0, symName: __ZNSt12_Vector_baseISt4pairI11IndexTripledESaIS2_EE17_Vector_impl_data12_M_copy_dataERKS5_, symObjAddr: 0x2DC8, symBinAddr: 0x100007BD0, symSize: 0x48 }
  - { offset: 0xCB00, size: 0x8, addend: 0x0, symName: __ZNSt12_Vector_baseISt4pairI11IndexTripledESaIS2_EEC2ERKS3_, symObjAddr: 0x2DA0, symBinAddr: 0x100007BA8, symSize: 0x28 }
  - { offset: 0xCB85, size: 0x8, addend: 0x0, symName: __ZNKSt6vectorISt4pairI11IndexTripledESaIS2_EE3endEv, symObjAddr: 0x2D70, symBinAddr: 0x100007B78, symSize: 0x30 }
  - { offset: 0xCBD4, size: 0x8, addend: 0x0, symName: __ZNKSt6vectorISt4pairI11IndexTripledESaIS2_EE5beginEv, symObjAddr: 0x2D44, symBinAddr: 0x100007B4C, symSize: 0x2C }
  - { offset: 0xCC5A, size: 0x8, addend: 0x0, symName: __ZSt3maxImERKT_S2_S2_, symObjAddr: 0x2D0C, symBinAddr: 0x100007B14, symSize: 0x38 }
  - { offset: 0xCCE3, size: 0x8, addend: 0x0, symName: __ZNSt4pairI11IndexTripledEC1IS0_RdLb1EEEOT_OT0_, symObjAddr: 0x2CB8, symBinAddr: 0x100007AC0, symSize: 0x54 }
  - { offset: 0xCD69, size: 0x8, addend: 0x0, symName: __ZSt14__relocate_a_1IPSt4pairI11IndexTripledES3_SaIS2_EET0_T_S6_S5_RT1_, symObjAddr: 0x2C40, symBinAddr: 0x100007A48, symSize: 0x78 }
  - { offset: 0xCE52, size: 0x8, addend: 0x0, symName: __ZNSt15__new_allocatorISt4pairI11IndexTripledEE8allocateEmPKv, symObjAddr: 0x2BB0, symBinAddr: 0x1000079B8, symSize: 0x90 }
  - { offset: 0xCED4, size: 0x8, addend: 0x0, symName: __ZNSt15__new_allocatorISt4pairI11IndexTripledEE10deallocateEPS2_m, symObjAddr: 0x2B74, symBinAddr: 0x10000797C, symSize: 0x3C }
  - { offset: 0xCF16, size: 0x8, addend: 0x0, symName: __ZSt8_DestroyISt6vectorISt4pairI11IndexTripledESaIS3_EEEvPT_, symObjAddr: 0x2B54, symBinAddr: 0x10000795C, symSize: 0x20 }
  - { offset: 0xCF62, size: 0x8, addend: 0x0, symName: __ZSt25__uninitialized_default_nIPSt6vectorISt4pairI11IndexTripledESaIS3_EEmET_S7_T0_, symObjAddr: 0x2B28, symBinAddr: 0x100007930, symSize: 0x2C }
  - { offset: 0xCFC1, size: 0x8, addend: 0x0, symName: __ZNSt12_Vector_baseISt6vectorISt4pairI11IndexTripledESaIS3_EESaIS5_EE11_M_allocateEm, symObjAddr: 0x2AD8, symBinAddr: 0x1000078E0, symSize: 0x50 }
  - { offset: 0xD03B, size: 0x8, addend: 0x0, symName: __ZNSt12_Vector_baseISt6vectorISt4pairI11IndexTripledESaIS3_EESaIS5_EE17_Vector_impl_dataC2Ev, symObjAddr: 0x2AAC, symBinAddr: 0x1000078B4, symSize: 0x2C }
  - { offset: 0xD06F, size: 0x8, addend: 0x0, symName: __ZSt20uninitialized_fill_nIPdmdET_S1_T0_RKT1_, symObjAddr: 0x2A80, symBinAddr: 0x100007888, symSize: 0x2C }
  - { offset: 0xD0D6, size: 0x8, addend: 0x0, symName: __ZNSt12_Vector_baseIdSaIdEE11_M_allocateEm, symObjAddr: 0x2A30, symBinAddr: 0x100007838, symSize: 0x50 }
  - { offset: 0xD150, size: 0x8, addend: 0x0, symName: __ZNSt12_Vector_baseIdSaIdEE17_Vector_impl_dataC2Ev, symObjAddr: 0x2A04, symBinAddr: 0x10000780C, symSize: 0x2C }
  - { offset: 0xD19C, size: 0x8, addend: 0x0, symName: __ZNKSt7__cxx1112basic_stringIcSt11char_traitsIcESaIcEE16_M_get_allocatorEv, symObjAddr: 0x29F0, symBinAddr: 0x1000077F8, symSize: 0x14 }
  - { offset: 0xD2C8, size: 0x8, addend: 0x0, symName: __ZNSt12_Vector_baseISt4pairI11IndexTripledESaIS2_EE17_Vector_impl_data12_M_swap_dataERS5_, symObjAddr: 0x29A4, symBinAddr: 0x1000077AC, symSize: 0x4C }
  - { offset: 0xD333, size: 0x8, addend: 0x0, symName: __ZNSt6vectorISt4pairI11IndexTripledESaIS2_EEC1ERKS3_, symObjAddr: 0x297C, symBinAddr: 0x100007784, symSize: 0x28 }
  - { offset: 0xD35F, size: 0x8, addend: 0x0, symName: __ZNKSt12_Vector_baseISt4pairI11IndexTripledESaIS2_EE13get_allocatorEv, symObjAddr: 0x292C, symBinAddr: 0x100007734, symSize: 0x50 }
  - { offset: 0xD40F, size: 0x8, addend: 0x0, symName: __ZNKSt6vectorISt4pairI11IndexTripledESaIS2_EE5emptyEv, symObjAddr: 0x28D4, symBinAddr: 0x1000076DC, symSize: 0x58 }
  - { offset: 0xD4D3, size: 0x8, addend: 0x0, symName: __ZNSt6vectorISt4pairI11IndexTripledESaIS2_EE12_Guard_allocD1Ev, symObjAddr: 0x2888, symBinAddr: 0x100007690, symSize: 0x4C }
  - { offset: 0xD536, size: 0x8, addend: 0x0, symName: __ZNSt6vectorISt4pairI11IndexTripledESaIS2_EE12_Guard_allocC1EPS2_mRSt12_Vector_baseIS2_S3_E, symObjAddr: 0x2844, symBinAddr: 0x10000764C, symSize: 0x44 }
  - { offset: 0xD5AB, size: 0x8, addend: 0x0, symName: __ZNSt6vectorISt4pairI11IndexTripledESaIS2_EE5beginEv, symObjAddr: 0x2818, symBinAddr: 0x100007620, symSize: 0x2C }
  - { offset: 0xD5FA, size: 0x8, addend: 0x0, symName: __ZNSt6vectorISt4pairI11IndexTripledESaIS2_EE3endEv, symObjAddr: 0x27E8, symBinAddr: 0x1000075F0, symSize: 0x30 }
  - { offset: 0xD649, size: 0x8, addend: 0x0, symName: __ZNKSt6vectorISt4pairI11IndexTripledESaIS2_EE12_M_check_lenEmPKc, symObjAddr: 0x2718, symBinAddr: 0x100007520, symSize: 0xD0 }
  - { offset: 0xD6EA, size: 0x8, addend: 0x0, symName: __ZSt12__relocate_aIPSt4pairI11IndexTripledES3_SaIS2_EET0_T_S6_S5_RT1_, symObjAddr: 0x26CC, symBinAddr: 0x1000074D4, symSize: 0x4C }
  - { offset: 0xD7E8, size: 0x8, addend: 0x0, symName: __ZNKSt12_Vector_baseISt4pairI11IndexTripledESaIS2_EE19_M_get_Tp_allocatorEv, symObjAddr: 0x26B8, symBinAddr: 0x1000074C0, symSize: 0x14 }
  - { offset: 0xD80C, size: 0x8, addend: 0x0, symName: __ZNSt6vectorISt4pairI11IndexTripledESaIS2_EE11_S_max_sizeERKS3_, symObjAddr: 0x265C, symBinAddr: 0x100007464, symSize: 0x5C }
  - { offset: 0xD8BB, size: 0x8, addend: 0x0, symName: __ZSt8_DestroyIPSt4pairI11IndexTripledEEvT_S4_, symObjAddr: 0x2644, symBinAddr: 0x10000744C, symSize: 0x18 }
  - { offset: 0xD93C, size: 0x8, addend: 0x0, symName: __ZSt8_DestroyIPSt6vectorISt4pairI11IndexTripledESaIS3_EEEvT_S7_, symObjAddr: 0x25F4, symBinAddr: 0x1000073FC, symSize: 0x50 }
  - { offset: 0xD99C, size: 0x8, addend: 0x0, symName: __ZSt27__uninitialized_default_n_aIPSt6vectorISt4pairI11IndexTripledESaIS3_EEmS5_ET_S7_T0_RSaIT1_E, symObjAddr: 0x25CC, symBinAddr: 0x1000073D4, symSize: 0x28 }
  - { offset: 0xD9FB, size: 0x8, addend: 0x0, symName: __ZNSt12_Vector_baseISt6vectorISt4pairI11IndexTripledESaIS3_EESaIS5_EE17_M_create_storageEm, symObjAddr: 0x2560, symBinAddr: 0x100007368, symSize: 0x6C }
  - { offset: 0xDA57, size: 0x8, addend: 0x0, symName: __ZNSt12_Vector_baseISt6vectorISt4pairI11IndexTripledESaIS3_EESaIS5_EE12_Vector_implC1ERKS6_, symObjAddr: 0x2514, symBinAddr: 0x10000731C, symSize: 0x4C }
  - { offset: 0xDAD1, size: 0x8, addend: 0x0, symName: __ZNSt6vectorIS_ISt4pairI11IndexTripledESaIS2_EESaIS4_EE11_S_max_sizeERKS5_, symObjAddr: 0x24B8, symBinAddr: 0x1000072C0, symSize: 0x5C }
  - { offset: 0xDB80, size: 0x8, addend: 0x0, symName: __ZSt8_DestroyIPdEvT_S1_, symObjAddr: 0x24A0, symBinAddr: 0x1000072A8, symSize: 0x18 }
  - { offset: 0xDBBF, size: 0x8, addend: 0x0, symName: __ZSt24__uninitialized_fill_n_aIPdmddET_S1_T0_RKT1_RSaIT2_E, symObjAddr: 0x2470, symBinAddr: 0x100007278, symSize: 0x30 }
  - { offset: 0xDC37, size: 0x8, addend: 0x0, symName: __ZNSt12_Vector_baseIdSaIdEE17_M_create_storageEm, symObjAddr: 0x2410, symBinAddr: 0x100007218, symSize: 0x60 }
  - { offset: 0xDC93, size: 0x8, addend: 0x0, symName: __ZNSt12_Vector_baseIdSaIdEE12_Vector_implC1ERKS0_, symObjAddr: 0x23C4, symBinAddr: 0x1000071CC, symSize: 0x4C }
  - { offset: 0xDD0D, size: 0x8, addend: 0x0, symName: __ZNSt6vectorIdSaIdEE11_S_max_sizeERKS0_, symObjAddr: 0x2370, symBinAddr: 0x100007178, symSize: 0x54 }
  - { offset: 0xDDC0, size: 0x8, addend: 0x0, symName: __ZNKSt7__cxx1112basic_stringIcSt11char_traitsIcESaIcEE8max_sizeEv, symObjAddr: 0x2314, symBinAddr: 0x10000711C, symSize: 0x5C }
  - { offset: 0xDE6B, size: 0x8, addend: 0x0, symName: __ZSt3minImERKT_S2_S2_, symObjAddr: 0x22DC, symBinAddr: 0x1000070E4, symSize: 0x38 }
  - { offset: 0xDEAE, size: 0x8, addend: 0x0, symName: __ZNSt6vectorISt4pairI11IndexTripledESaIS2_EE17_M_realloc_appendIJS1_dEEEvDpOT_, symObjAddr: 0x2070, symBinAddr: 0x100006E78, symSize: 0x26C }
  - { offset: 0xE1D4, size: 0x8, addend: 0x0, symName: __ZNSt12_Vector_baseISt6vectorISt4pairI11IndexTripledESaIS3_EESaIS5_EE13_M_deallocateEPS5_m, symObjAddr: 0x2018, symBinAddr: 0x100006E20, symSize: 0x58 }
  - { offset: 0xE272, size: 0x8, addend: 0x0, symName: __ZNSt12_Vector_baseISt6vectorISt4pairI11IndexTripledESaIS3_EESaIS5_EE17_Vector_impl_dataC2EOS8_, symObjAddr: 0x1FA8, symBinAddr: 0x100006DB0, symSize: 0x70 }
  - { offset: 0xE2E6, size: 0x8, addend: 0x0, symName: __ZNSt12_Vector_baseIdSaIdEE13_M_deallocateEPdm, symObjAddr: 0x1F50, symBinAddr: 0x100006D58, symSize: 0x58 }
  - { offset: 0xE384, size: 0x8, addend: 0x0, symName: __ZNSt12_Vector_baseIdSaIdEE17_Vector_impl_dataC2EOS2_, symObjAddr: 0x1EE0, symBinAddr: 0x100006CE8, symSize: 0x70 }
  - { offset: 0xE3F8, size: 0x8, addend: 0x0, symName: __ZNSt6vectorISt4pairI11IndexTripledESaIS2_EE14_M_move_assignEOS4_St17integral_constantIbLb1EE, symObjAddr: 0x1E4C, symBinAddr: 0x100006C54, symSize: 0x94 }
  - { offset: 0xE495, size: 0x8, addend: 0x0, symName: __ZNKSt6vectorIS_ISt4pairI11IndexTripledESaIS2_EESaIS4_EE4sizeEv, symObjAddr: 0x1E00, symBinAddr: 0x100006C08, symSize: 0x4C }
  - { offset: 0xE4CE, size: 0x8, addend: 0x0, symName: __ZNSt6vectorISt4pairI11IndexTripledESaIS2_EE4backEv, symObjAddr: 0x1D58, symBinAddr: 0x100006B60, symSize: 0xA8 }
  - { offset: 0xE57B, size: 0x8, addend: 0x0, symName: __ZNSt6vectorISt4pairI11IndexTripledESaIS2_EE17_M_realloc_appendIJS1_RdEEEvDpOT_, symObjAddr: 0x1AEC, symBinAddr: 0x1000068F4, symSize: 0x26C }
  - { offset: 0xE8BF, size: 0x8, addend: 0x0, symName: __ZNSt6vectorISt4pairI11IndexTripledESaIS2_EE11_S_relocateEPS2_S5_S5_RS3_, symObjAddr: 0x1AB8, symBinAddr: 0x1000068C0, symSize: 0x34 }
  - { offset: 0xE91B, size: 0x8, addend: 0x0, symName: __ZNSt12_Vector_baseISt4pairI11IndexTripledESaIS2_EE11_M_allocateEm, symObjAddr: 0x1A68, symBinAddr: 0x100006870, symSize: 0x50 }
  - { offset: 0xE97D, size: 0x8, addend: 0x0, symName: __ZNKSt6vectorISt4pairI11IndexTripledESaIS2_EE4sizeEv, symObjAddr: 0x1A1C, symBinAddr: 0x100006824, symSize: 0x4C }
  - { offset: 0xE9B6, size: 0x8, addend: 0x0, symName: __ZNKSt6vectorISt4pairI11IndexTripledESaIS2_EE8capacityEv, symObjAddr: 0x19D0, symBinAddr: 0x1000067D8, symSize: 0x4C }
  - { offset: 0xE9EF, size: 0x8, addend: 0x0, symName: __ZNKSt6vectorISt4pairI11IndexTripledESaIS2_EE8max_sizeEv, symObjAddr: 0x19B0, symBinAddr: 0x1000067B8, symSize: 0x20 }
  - { offset: 0xEA4F, size: 0x8, addend: 0x0, symName: __ZNSt12_Vector_baseISt4pairI11IndexTripledESaIS2_EE19_M_get_Tp_allocatorEv, symObjAddr: 0x199C, symBinAddr: 0x1000067A4, symSize: 0x14 }
  - { offset: 0xEA77, size: 0x8, addend: 0x0, symName: __ZNSt12_Vector_baseISt4pairI11IndexTripledESaIS2_EE13_M_deallocateEPS2_m, symObjAddr: 0x1944, symBinAddr: 0x10000674C, symSize: 0x58 }
  - { offset: 0xEB09, size: 0x8, addend: 0x0, symName: __ZNSt15__new_allocatorISt4pairI11IndexTripledEED2Ev, symObjAddr: 0x1930, symBinAddr: 0x100006738, symSize: 0x14 }
  - { offset: 0xEB45, size: 0x8, addend: 0x0, symName: __ZNSt12_Vector_baseISt4pairI11IndexTripledESaIS2_EE17_Vector_impl_dataC1Ev, symObjAddr: 0x1904, symBinAddr: 0x10000670C, symSize: 0x2C }
  - { offset: 0xEB6D, size: 0x8, addend: 0x0, symName: __ZNSt12_Vector_baseISt4pairI11IndexTripledESaIS2_EE17_Vector_impl_dataC2Ev, symObjAddr: 0x18D8, symBinAddr: 0x1000066E0, symSize: 0x2C }
  - { offset: 0xEBA5, size: 0x8, addend: 0x0, symName: __ZNKSt6vectorIdSaIdEE4sizeEv, symObjAddr: 0x1898, symBinAddr: 0x1000066A0, symSize: 0x40 }
  - { offset: 0xEC16, size: 0x8, addend: 0x0, symName: __ZNSt12_Vector_baseISt6vectorISt4pairI11IndexTripledESaIS3_EESaIS5_EE19_M_get_Tp_allocatorEv, symObjAddr: 0x1884, symBinAddr: 0x10000668C, symSize: 0x14 }
  - { offset: 0xEC3E, size: 0x8, addend: 0x0, symName: __ZNSt6vectorIS_ISt4pairI11IndexTripledESaIS2_EESaIS4_EE21_M_default_initializeEm, symObjAddr: 0x1834, symBinAddr: 0x10000663C, symSize: 0x50 }
  - { offset: 0xECA8, size: 0x8, addend: 0x0, symName: __ZNSt12_Vector_baseISt6vectorISt4pairI11IndexTripledESaIS3_EESaIS5_EEC2EmRKS6_, symObjAddr: 0x17E0, symBinAddr: 0x1000065E8, symSize: 0x54 }
  - { offset: 0xECD8, size: 0x8, addend: 0x0, symName: __ZNSt6vectorIS_ISt4pairI11IndexTripledESaIS2_EESaIS4_EE17_S_check_init_lenEmRKS5_, symObjAddr: 0x175C, symBinAddr: 0x100006564, symSize: 0x84 }
  - { offset: 0xED9B, size: 0x8, addend: 0x0, symName: __ZNSt15__new_allocatorISt6vectorISt4pairI11IndexTripledESaIS3_EEED2Ev, symObjAddr: 0x1748, symBinAddr: 0x100006550, symSize: 0x14 }
  - { offset: 0xEE0B, size: 0x8, addend: 0x0, symName: __ZNSt12_Vector_baseIdSaIdEE19_M_get_Tp_allocatorEv, symObjAddr: 0x1734, symBinAddr: 0x10000653C, symSize: 0x14 }
  - { offset: 0xEE33, size: 0x8, addend: 0x0, symName: __ZNSt6vectorIdSaIdEE18_M_fill_initializeEmRKd, symObjAddr: 0x16DC, symBinAddr: 0x1000064E4, symSize: 0x58 }
  - { offset: 0xEEAD, size: 0x8, addend: 0x0, symName: __ZNSt12_Vector_baseIdSaIdEEC2EmRKS0_, symObjAddr: 0x1688, symBinAddr: 0x100006490, symSize: 0x54 }
  - { offset: 0xEEDD, size: 0x8, addend: 0x0, symName: __ZNSt6vectorIdSaIdEE17_S_check_init_lenEmRKS0_, symObjAddr: 0x1604, symBinAddr: 0x10000640C, symSize: 0x84 }
  - { offset: 0xEFA0, size: 0x8, addend: 0x0, symName: __ZNSt15__new_allocatorIdED2Ev, symObjAddr: 0x15F0, symBinAddr: 0x1000063F8, symSize: 0x14 }
  - { offset: 0xEFD8, size: 0x8, addend: 0x0, symName: __ZNKSt7__cxx1112basic_stringIcSt11char_traitsIcESaIcEE4sizeEv, symObjAddr: 0x15A0, symBinAddr: 0x1000063A8, symSize: 0x50 }
  - { offset: 0xF011, size: 0x8, addend: 0x0, symName: __ZNKSt7__cxx1112basic_stringIcSt11char_traitsIcESaIcEE4dataEv, symObjAddr: 0x1584, symBinAddr: 0x10000638C, symSize: 0x1C }
  - { offset: 0xF039, size: 0x8, addend: 0x0, symName: __ZNKSt7__cxx1112basic_stringIcSt11char_traitsIcESaIcEE7_M_dataEv, symObjAddr: 0x156C, symBinAddr: 0x100006374, symSize: 0x18 }
  - { offset: 0xF05D, size: 0x8, addend: 0x0, symName: __ZN9__gnu_cxx11char_traitsIcE2eqERKcS3_, symObjAddr: 0x153C, symBinAddr: 0x100006344, symSize: 0x30 }
  - { offset: 0xF097, size: 0x8, addend: 0x0, symName: __ZNSt6vectorISt4pairI11IndexTripledESaIS2_EE12emplace_backIJS1_dEEERS2_DpOT_, symObjAddr: 0x13F4, symBinAddr: 0x1000061FC, symSize: 0x148 }
  - { offset: 0xF288, size: 0x8, addend: 0x0, symName: __ZNSt12_Vector_baseISt6vectorISt4pairI11IndexTripledESaIS3_EESaIS5_EED2Ev, symObjAddr: 0x1398, symBinAddr: 0x1000061A0, symSize: 0x5C }
  - { offset: 0xF2D0, size: 0x8, addend: 0x0, symName: __ZNSt12_Vector_baseISt6vectorISt4pairI11IndexTripledESaIS3_EESaIS5_EE12_Vector_implC1EOS8_, symObjAddr: 0x1338, symBinAddr: 0x100006140, symSize: 0x60 }
  - { offset: 0xF3A8, size: 0x8, addend: 0x0, symName: __ZNSt12_Vector_baseIdSaIdEED2Ev, symObjAddr: 0x12E8, symBinAddr: 0x1000060F0, symSize: 0x50 }
  - { offset: 0xF3F0, size: 0x8, addend: 0x0, symName: __ZNSt12_Vector_baseIdSaIdEE12_Vector_implC1EOS2_, symObjAddr: 0x1288, symBinAddr: 0x100006090, symSize: 0x60 }
  - { offset: 0xF4F4, size: 0x8, addend: 0x0, symName: __ZNSt6vectorISt4pairI11IndexTripledESaIS2_EEaSEOS4_, symObjAddr: 0x124C, symBinAddr: 0x100006054, symSize: 0x3C }
  - { offset: 0xF581, size: 0x8, addend: 0x0, symName: __ZNSt6vectorIS_ISt4pairI11IndexTripledESaIS2_EESaIS4_EEixEm, symObjAddr: 0x11BC, symBinAddr: 0x100005FC4, symSize: 0x90 }
  - { offset: 0xF5D6, size: 0x8, addend: 0x0, symName: __ZNSt6vectorISt4pairI11IndexTripledESaIS2_EE12emplace_backIJS1_RdEEERS2_DpOT_, symObjAddr: 0x1074, symBinAddr: 0x100005E7C, symSize: 0x148 }
  - { offset: 0xF7AF, size: 0x8, addend: 0x0, symName: __ZNSt6vectorIdSaIdEEixEm, symObjAddr: 0xFF0, symBinAddr: 0x100005DF8, symSize: 0x84 }
  - { offset: 0xF7FE, size: 0x8, addend: 0x0, symName: __ZSteqIcSt11char_traitsIcESaIcEEbRKNSt7__cxx1112basic_stringIT_T0_T1_EEPKS5_, symObjAddr: 0xF7C, symBinAddr: 0x100005D84, symSize: 0x74 }
  - { offset: 0xF855, size: 0x8, addend: 0x0, symName: __ZNSt6vectorISt4pairI11IndexTripledESaIS2_EE7reserveEm, symObjAddr: 0xE18, symBinAddr: 0x100005C20, symSize: 0x164 }
  - { offset: 0xF8D4, size: 0x8, addend: 0x0, symName: __ZNSt6vectorISt4pairI11IndexTripledESaIS2_EED1Ev, symObjAddr: 0xDBC, symBinAddr: 0x100005BC4, symSize: 0x5C }
  - { offset: 0xF942, size: 0x8, addend: 0x0, symName: __ZNSt12_Vector_baseISt4pairI11IndexTripledESaIS2_EED2Ev, symObjAddr: 0xD60, symBinAddr: 0x100005B68, symSize: 0x5C }
  - { offset: 0xF992, size: 0x8, addend: 0x0, symName: __ZNSt12_Vector_baseISt4pairI11IndexTripledESaIS2_EE12_Vector_implC1Ev, symObjAddr: 0xD28, symBinAddr: 0x100005B30, symSize: 0x38 }
  - { offset: 0xF9F8, size: 0x8, addend: 0x0, symName: __ZNKSt5arrayIdLm3EEixEm, symObjAddr: 0xCB8, symBinAddr: 0x100005AC0, symSize: 0x70 }
  - { offset: 0xFA6B, size: 0x8, addend: 0x0, symName: __ZNKSt6vectorIdSaIdEEixEm, symObjAddr: 0xC34, symBinAddr: 0x100005A3C, symSize: 0x84 }
  - { offset: 0xFABE, size: 0x8, addend: 0x0, symName: __ZNKSt6vectorISt5arrayIdLm3EESaIS1_EEixEm, symObjAddr: 0xBA4, symBinAddr: 0x1000059AC, symSize: 0x90 }
  - { offset: 0xFB2B, size: 0x8, addend: 0x0, symName: __ZNSt6vectorIS_ISt4pairI11IndexTripledESaIS2_EESaIS4_EED1Ev, symObjAddr: 0xB48, symBinAddr: 0x100005950, symSize: 0x5C }
  - { offset: 0xFBB3, size: 0x8, addend: 0x0, symName: __ZNSt6vectorIS_ISt4pairI11IndexTripledESaIS2_EESaIS4_EEC1EmRKS5_, symObjAddr: 0xAE0, symBinAddr: 0x1000058E8, symSize: 0x68 }
  - { offset: 0xFC0F, size: 0x8, addend: 0x0, symName: __ZNKSt6vectorISt5arrayIdLm3EESaIS1_EE4sizeEv, symObjAddr: 0xA94, symBinAddr: 0x10000589C, symSize: 0x4C }
  - { offset: 0xFC60, size: 0x8, addend: 0x0, symName: __ZNSt6vectorIdSaIdEED1Ev, symObjAddr: 0xA38, symBinAddr: 0x100005840, symSize: 0x5C }
  - { offset: 0xFCF5, size: 0x8, addend: 0x0, symName: __ZNSt6vectorIdSaIdEEC1EmRKdRKS0_, symObjAddr: 0x9C8, symBinAddr: 0x1000057D0, symSize: 0x70 }
  - { offset: 0xFD55, size: 0x8, addend: 0x0, symName: __ZN9__gnu_cxx11char_traitsIcE6lengthEPKc, symObjAddr: 0x970, symBinAddr: 0x100005778, symSize: 0x58 }
  - { offset: 0xFDA3, size: 0x8, addend: 0x0, symName: __ZNSt5arrayIdLm3EEixEm, symObjAddr: 0x720, symBinAddr: 0x100005528, symSize: 0x70 }
  - { offset: 0xFE33, size: 0x8, addend: 0x0, symName: __ZNSt6vectorIS_ISt4pairI11IndexTripledESaIS2_EESaIS4_EEC1EOS6_, symObjAddr: 0x2EC, symBinAddr: 0x1000050F4, symSize: 0x28 }
  - { offset: 0xFE7C, size: 0x8, addend: 0x0, symName: __ZNSt12_Vector_baseISt6vectorISt4pairI11IndexTripledESaIS3_EESaIS5_EEC2EOS7_, symObjAddr: 0x2C4, symBinAddr: 0x1000050CC, symSize: 0x28 }
  - { offset: 0xFEC4, size: 0x8, addend: 0x0, symName: __ZNSt12_Vector_baseISt6vectorISt4pairI11IndexTripledESaIS3_EESaIS5_EE12_Vector_implD1Ev, symObjAddr: 0x298, symBinAddr: 0x1000050A0, symSize: 0x2C }
  - { offset: 0xFF26, size: 0x8, addend: 0x0, symName: __ZNSt6vectorIdSaIdEEC1EOS1_, symObjAddr: 0x270, symBinAddr: 0x100005078, symSize: 0x28 }
  - { offset: 0xFF6F, size: 0x8, addend: 0x0, symName: __ZNSt12_Vector_baseIdSaIdEEC2EOS1_, symObjAddr: 0x248, symBinAddr: 0x100005050, symSize: 0x28 }
  - { offset: 0xFFB7, size: 0x8, addend: 0x0, symName: __ZNSt12_Vector_baseIdSaIdEE12_Vector_implD1Ev, symObjAddr: 0x21C, symBinAddr: 0x100005024, symSize: 0x2C }
  - { offset: 0x10014, size: 0x8, addend: 0x0, symName: __ZNSt6vectorISt4pairI11IndexTripledESaIS2_EEC1Ev, symObjAddr: 0x1FC, symBinAddr: 0x100005004, symSize: 0x20 }
  - { offset: 0x10050, size: 0x8, addend: 0x0, symName: __ZNSt12_Vector_baseISt4pairI11IndexTripledESaIS2_EEC2Ev, symObjAddr: 0x1DC, symBinAddr: 0x100004FE4, symSize: 0x20 }
  - { offset: 0x10090, size: 0x8, addend: 0x0, symName: __ZNSt12_Vector_baseISt4pairI11IndexTripledESaIS2_EE12_Vector_implD1Ev, symObjAddr: 0x1B0, symBinAddr: 0x100004FB8, symSize: 0x2C }
  - { offset: 0x100D1, size: 0x8, addend: 0x0, symName: __ZSt3absd, symObjAddr: 0x194, symBinAddr: 0x100004F9C, symSize: 0x1C }
  - { offset: 0x100F8, size: 0x8, addend: 0x0, symName: __ZNSt11char_traitsIcE6lengthEPKc, symObjAddr: 0x158, symBinAddr: 0x100004F60, symSize: 0x3C }
  - { offset: 0x1013A, size: 0x8, addend: 0x0, symName: __ZNSt11char_traitsIcE7compareEPKcS2_m, symObjAddr: 0x68, symBinAddr: 0x100004E70, symSize: 0xF0 }
  - { offset: 0x101BF, size: 0x8, addend: 0x0, symName: __ZNSt11char_traitsIcE2ltERKcS2_, symObjAddr: 0x30, symBinAddr: 0x100004E38, symSize: 0x38 }
  - { offset: 0x101FF, size: 0x8, addend: 0x0, symName: __ZdlPvS_, symObjAddr: 0x18, symBinAddr: 0x100004E20, symSize: 0x18 }
  - { offset: 0x10232, size: 0x8, addend: 0x0, symName: __ZnwmPv, symObjAddr: 0x0, symBinAddr: 0x100004E08, symSize: 0x18 }
  - { offset: 0x1027D, size: 0x8, addend: 0x0, symName: __ZSt17__size_to_integerm, symObjAddr: 0x0, symBinAddr: 0x100009330, symSize: 0x14 }
  - { offset: 0x19C22, size: 0x8, addend: 0x0, symName: __Z8dkd_stepSt6vectorISt5arrayIdLm3EESaIS1_EES3_S_IdSaIdEEdidRKNSt7__cxx1112basic_stringIcSt11char_traitsIcESaIcEEESD_bd, symObjAddr: 0x1154, symBinAddr: 0x10000A1D8, symSize: 0x3D8 }
  - { offset: 0x19CDC, size: 0x8, addend: 0x0, symName: __Z8dkd_stepSt6vectorISt5arrayIdLm3EESaIS1_EES3_S_IdSaIdEEdidRKNSt7__cxx1112basic_stringIcSt11char_traitsIcESaIcEEESD_bd._omp_fn.0, symObjAddr: 0x6058, symBinAddr: 0x10000DE74, symSize: 0x140 }
  - { offset: 0x19D57, size: 0x8, addend: 0x0, symName: __Z8dkd_stepSt6vectorISt5arrayIdLm3EESaIS1_EES3_S_IdSaIdEEdidRKNSt7__cxx1112basic_stringIcSt11char_traitsIcESaIcEEESD_bd._omp_fn.1, symObjAddr: 0x6198, symBinAddr: 0x10000DFB4, symSize: 0x138 }
  - { offset: 0x19DE4, size: 0x8, addend: 0x0, symName: __Z8dkd_stepSt6vectorISt5arrayIdLm3EESaIS1_EES3_S_IdSaIdEEdidRKNSt7__cxx1112basic_stringIcSt11char_traitsIcESaIcEEESD_bd._omp_fn.2, symObjAddr: 0x62D0, symBinAddr: 0x10000E0EC, symSize: 0x140 }
  - { offset: 0x1A1DE, size: 0x8, addend: 0x0, symName: __Z8kdk_stepSt6vectorISt5arrayIdLm3EESaIS1_EES3_S_IdSaIdEEdidRKNSt7__cxx1112basic_stringIcSt11char_traitsIcESaIcEEESD_bd, symObjAddr: 0xE1C, symBinAddr: 0x100009EA0, symSize: 0x338 }
  - { offset: 0x1A298, size: 0x8, addend: 0x0, symName: __Z8kdk_stepSt6vectorISt5arrayIdLm3EESaIS1_EES3_S_IdSaIdEEdidRKNSt7__cxx1112basic_stringIcSt11char_traitsIcESaIcEEESD_bd._omp_fn.0, symObjAddr: 0x5CA0, symBinAddr: 0x10000DABC, symSize: 0x140 }
  - { offset: 0x1A325, size: 0x8, addend: 0x0, symName: __Z8kdk_stepSt6vectorISt5arrayIdLm3EESaIS1_EES3_S_IdSaIdEEdidRKNSt7__cxx1112basic_stringIcSt11char_traitsIcESaIcEEESD_bd._omp_fn.1, symObjAddr: 0x5DE0, symBinAddr: 0x10000DBFC, symSize: 0x138 }
  - { offset: 0x1A3A0, size: 0x8, addend: 0x0, symName: __Z8kdk_stepSt6vectorISt5arrayIdLm3EESaIS1_EES3_S_IdSaIdEEdidRKNSt7__cxx1112basic_stringIcSt11char_traitsIcESaIcEEESD_bd._omp_fn.2, symObjAddr: 0x5F18, symBinAddr: 0x10000DD34, symSize: 0x140 }
  - { offset: 0x1A6C1, size: 0x8, addend: 0x0, symName: __Z26nbody_compute_accelerationRKSt6vectorISt5arrayIdLm3EESaIS1_EERKS_IdSaIdEEid, symObjAddr: 0xC20, symBinAddr: 0x100009CA4, symSize: 0x1FC }
  - { offset: 0x1A718, size: 0x8, addend: 0x0, symName: __Z26nbody_compute_accelerationRKSt6vectorISt5arrayIdLm3EESaIS1_EERKS_IdSaIdEEid._omp_fn.0, symObjAddr: 0x561C, symBinAddr: 0x10000D438, symSize: 0x3B8 }
  - { offset: 0x1A843, size: 0x8, addend: 0x0, symName: __Z26nbody_compute_accelerationRKSt6vectorISt5arrayIdLm3EESaIS1_EERKS_IdSaIdEEid._omp_fn.1, symObjAddr: 0x59D4, symBinAddr: 0x10000D7F0, symSize: 0x2CC }
  - { offset: 0x1ABC8, size: 0x8, addend: 0x0, symName: __Z24interpolate_to_particlesRKSt5arrayISt6vectorIdSaIdEELm3EERKS0_IS0_ISt4pairI11IndexTripledESaIS8_EESaISA_EEi, symObjAddr: 0x4E4, symBinAddr: 0x100009594, symSize: 0xD0 }
  - { offset: 0x1AC0F, size: 0x8, addend: 0x0, symName: __Z24interpolate_to_particlesRKSt5arrayISt6vectorIdSaIdEELm3EERKS0_IS0_ISt4pairI11IndexTripledESaIS8_EESaISA_EEi._omp_fn.0, symObjAddr: 0x5388, symBinAddr: 0x10000D1A4, symSize: 0x294 }
  - { offset: 0x1AE99, size: 0x8, addend: 0x0, symName: __Z25compute_grid_accelerationRKSt6vectorIdSaIdEEid, symObjAddr: 0x300, symBinAddr: 0x100009420, symSize: 0xF8 }
  - { offset: 0x1AEE0, size: 0x8, addend: 0x0, symName: __Z25compute_grid_accelerationRKSt6vectorIdSaIdEEid._omp_fn.0, symObjAddr: 0x4EE8, symBinAddr: 0x10000CD04, symSize: 0x4A0 }
  - { offset: 0x1B0F0, size: 0x8, addend: 0x0, symName: __ZNSt19_UninitDestroyGuardIPSt5arrayIdLm3EEvE7releaseEv, symObjAddr: 0x4CF4, symBinAddr: 0x10000CCE8, symSize: 0x1C }
  - { offset: 0x1B114, size: 0x8, addend: 0x0, symName: __ZSt10_ConstructISt5arrayIdLm3EEJRKS1_EEvPT_DpOT0_, symObjAddr: 0x4C7C, symBinAddr: 0x10000CC70, symSize: 0x78 }
  - { offset: 0x1B1B9, size: 0x8, addend: 0x0, symName: __ZNSt19_UninitDestroyGuardIPSt5arrayIdLm3EEvED1Ev, symObjAddr: 0x4C24, symBinAddr: 0x10000CC18, symSize: 0x58 }
  - { offset: 0x1B201, size: 0x8, addend: 0x0, symName: __ZNSt19_UninitDestroyGuardIPSt5arrayIdLm3EEvEC1ERS2_, symObjAddr: 0x4BF0, symBinAddr: 0x10000CBE4, symSize: 0x34 }
  - { offset: 0x1B22D, size: 0x8, addend: 0x0, symName: __ZNSt15__new_allocatorISt5arrayIdLm3EEE8allocateEmPKv, symObjAddr: 0x4B60, symBinAddr: 0x10000CB54, symSize: 0x90 }
  - { offset: 0x1B2AB, size: 0x8, addend: 0x0, symName: __ZSt9__fill_a1IPddEvT_S1_RKT0_, symObjAddr: 0x49F8, symBinAddr: 0x10000CAF4, symSize: 0x60 }
  - { offset: 0x1B348, size: 0x8, addend: 0x0, symName: __ZSt18__do_uninit_fill_nIPSt5arrayIdLm3EEmS1_ET_S3_T0_RKT1_, symObjAddr: 0x48C0, symBinAddr: 0x10000CA64, symSize: 0x90 }
  - { offset: 0x1B517, size: 0x8, addend: 0x0, symName: __ZNSt12_Vector_baseISt6vectorISt4pairI11IndexTripledESaIS3_EESaIS5_EE17_Vector_impl_data12_M_copy_dataERKS8_, symObjAddr: 0x4798, symBinAddr: 0x10000CA1C, symSize: 0x48 }
  - { offset: 0x1B573, size: 0x8, addend: 0x0, symName: __ZNSt12_Vector_baseISt6vectorISt4pairI11IndexTripledESaIS3_EESaIS5_EEC2ERKS6_, symObjAddr: 0x4770, symBinAddr: 0x10000C9F4, symSize: 0x28 }
  - { offset: 0x1B59F, size: 0x8, addend: 0x0, symName: __ZNKSt12_Vector_baseISt6vectorISt4pairI11IndexTripledESaIS3_EESaIS5_EE19_M_get_Tp_allocatorEv, symObjAddr: 0x475C, symBinAddr: 0x10000C9E0, symSize: 0x14 }
  - { offset: 0x1B5EC, size: 0x8, addend: 0x0, symName: __ZNSt12_Vector_baseIdSaIdEEC2ERKS0_, symObjAddr: 0x4734, symBinAddr: 0x10000C9B8, symSize: 0x28 }
  - { offset: 0x1B618, size: 0x8, addend: 0x0, symName: __ZNKSt12_Vector_baseIdSaIdEE19_M_get_Tp_allocatorEv, symObjAddr: 0x4720, symBinAddr: 0x10000C9A4, symSize: 0x14 }
  - { offset: 0x1B640, size: 0x8, addend: 0x0, symName: __ZNSt15__new_allocatorISt5arrayIdLm3EEE10deallocateEPS1_m, symObjAddr: 0x4688, symBinAddr: 0x10000C968, symSize: 0x3C }
  - { offset: 0x1B682, size: 0x8, addend: 0x0, symName: __ZSt20uninitialized_fill_nIPSt5arrayIdLm3EEmS1_ET_S3_T0_RKT1_, symObjAddr: 0x465C, symBinAddr: 0x10000C93C, symSize: 0x2C }
  - { offset: 0x1B6E9, size: 0x8, addend: 0x0, symName: __ZNSt12_Vector_baseISt5arrayIdLm3EESaIS1_EE11_M_allocateEm, symObjAddr: 0x460C, symBinAddr: 0x10000C8EC, symSize: 0x50 }
  - { offset: 0x1B763, size: 0x8, addend: 0x0, symName: __ZNSt12_Vector_baseISt5arrayIdLm3EESaIS1_EE17_Vector_impl_dataC2Ev, symObjAddr: 0x45E0, symBinAddr: 0x10000C8C0, symSize: 0x2C }
  - { offset: 0x1B85F, size: 0x8, addend: 0x0, symName: __ZNSt12_Vector_baseIdSaIdEE17_Vector_impl_data12_M_copy_dataERKS2_, symObjAddr: 0x456C, symBinAddr: 0x10000C878, symSize: 0x48 }
  - { offset: 0x1B892, size: 0x8, addend: 0x0, symName: __ZSt18uninitialized_copyIN9__gnu_cxx17__normal_iteratorIPKSt5arrayIdLm3EESt6vectorIS3_SaIS3_EEEEPS3_ET0_T_SC_SB_, symObjAddr: 0x445C, symBinAddr: 0x10000C7AC, symSize: 0xCC }
  - { offset: 0x1BABA, size: 0x8, addend: 0x0, symName: __ZNSt12_Vector_baseISt6vectorISt4pairI11IndexTripledESaIS3_EESaIS5_EE17_Vector_impl_data12_M_swap_dataERS8_, symObjAddr: 0x42A0, symBinAddr: 0x10000C760, symSize: 0x4C }
  - { offset: 0x1BB25, size: 0x8, addend: 0x0, symName: __ZNSt6vectorIS_ISt4pairI11IndexTripledESaIS2_EESaIS4_EEC1ERKS5_, symObjAddr: 0x4278, symBinAddr: 0x10000C738, symSize: 0x28 }
  - { offset: 0x1BB51, size: 0x8, addend: 0x0, symName: __ZNKSt12_Vector_baseISt6vectorISt4pairI11IndexTripledESaIS3_EESaIS5_EE13get_allocatorEv, symObjAddr: 0x4228, symBinAddr: 0x10000C6E8, symSize: 0x50 }
  - { offset: 0x1BC1B, size: 0x8, addend: 0x0, symName: __ZNSt6vectorIdSaIdEEC1ERKS0_, symObjAddr: 0x4200, symBinAddr: 0x10000C6C0, symSize: 0x28 }
  - { offset: 0x1BC47, size: 0x8, addend: 0x0, symName: __ZNKSt12_Vector_baseIdSaIdEE13get_allocatorEv, symObjAddr: 0x41B0, symBinAddr: 0x10000C670, symSize: 0x50 }
  - { offset: 0x1BD19, size: 0x8, addend: 0x0, symName: __ZSt8_DestroyIPSt5arrayIdLm3EEEvT_S3_, symObjAddr: 0x4148, symBinAddr: 0x10000C658, symSize: 0x18 }
  - { offset: 0x1BD58, size: 0x8, addend: 0x0, symName: __ZSt24__uninitialized_fill_n_aIPSt5arrayIdLm3EEmS1_S1_ET_S3_T0_RKT1_RSaIT2_E, symObjAddr: 0x4118, symBinAddr: 0x10000C628, symSize: 0x30 }
  - { offset: 0x1BDD0, size: 0x8, addend: 0x0, symName: __ZNSt12_Vector_baseISt5arrayIdLm3EESaIS1_EE17_M_create_storageEm, symObjAddr: 0x40AC, symBinAddr: 0x10000C5BC, symSize: 0x6C }
  - { offset: 0x1BE2C, size: 0x8, addend: 0x0, symName: __ZNSt12_Vector_baseISt5arrayIdLm3EESaIS1_EE12_Vector_implC1ERKS2_, symObjAddr: 0x4060, symBinAddr: 0x10000C570, symSize: 0x4C }
  - { offset: 0x1BEA6, size: 0x8, addend: 0x0, symName: __ZNSt6vectorISt5arrayIdLm3EESaIS1_EE11_S_max_sizeERKS2_, symObjAddr: 0x4004, symBinAddr: 0x10000C514, symSize: 0x5C }
  - { offset: 0x1BFBB, size: 0x8, addend: 0x0, symName: __ZNSt6vectorIdSaIdEE15_M_erase_at_endEPd, symObjAddr: 0x3F7C, symBinAddr: 0x10000C48C, symSize: 0x88 }
  - { offset: 0x1C088, size: 0x8, addend: 0x0, symName: __ZNSt6vectorIdSaIdEE3endEv, symObjAddr: 0x3F1C, symBinAddr: 0x10000C45C, symSize: 0x30 }
  - { offset: 0x1C0D7, size: 0x8, addend: 0x0, symName: __ZNSt6vectorIdSaIdEE5beginEv, symObjAddr: 0x3EF0, symBinAddr: 0x10000C430, symSize: 0x2C }
  - { offset: 0x1C126, size: 0x8, addend: 0x0, symName: __ZNSt12_Vector_baseIdSaIdEE17_Vector_impl_data12_M_swap_dataERS2_, symObjAddr: 0x3EA4, symBinAddr: 0x10000C3E4, symSize: 0x4C }
  - { offset: 0x1C16C, size: 0x8, addend: 0x0, symName: __ZNKSt6vectorIdSaIdEE8capacityEv, symObjAddr: 0x3E64, symBinAddr: 0x10000C3A4, symSize: 0x40 }
  - { offset: 0x1C1B5, size: 0x8, addend: 0x0, symName: __ZSt22__uninitialized_copy_aIN9__gnu_cxx17__normal_iteratorIPKSt5arrayIdLm3EESt6vectorIS3_SaIS3_EEEES9_PS3_S3_ET1_T_T0_SB_RSaIT2_E, symObjAddr: 0x3D88, symBinAddr: 0x10000C374, symSize: 0x30 }
  - { offset: 0x1C22D, size: 0x8, addend: 0x0, symName: __ZNKSt6vectorISt5arrayIdLm3EESaIS1_EE3endEv, symObjAddr: 0x3D58, symBinAddr: 0x10000C344, symSize: 0x30 }
  - { offset: 0x1C27C, size: 0x8, addend: 0x0, symName: __ZNKSt6vectorISt5arrayIdLm3EESaIS1_EE5beginEv, symObjAddr: 0x3D2C, symBinAddr: 0x10000C318, symSize: 0x2C }
  - { offset: 0x1C2DE, size: 0x8, addend: 0x0, symName: __ZNKSt12_Vector_baseISt5arrayIdLm3EESaIS1_EE19_M_get_Tp_allocatorEv, symObjAddr: 0x3D18, symBinAddr: 0x10000C304, symSize: 0x14 }
  - { offset: 0x1C33B, size: 0x8, addend: 0x0, symName: __ZNSt6vectorIS_ISt4pairI11IndexTripledESaIS2_EESaIS4_EE14_M_move_assignEOS6_St17integral_constantIbLb1EE, symObjAddr: 0x3AF4, symBinAddr: 0x10000C270, symSize: 0x94 }
  - { offset: 0x1C3D8, size: 0x8, addend: 0x0, symName: __ZNSt6vectorIdSaIdEE14_M_move_assignEOS1_St17integral_constantIbLb1EE, symObjAddr: 0x3A60, symBinAddr: 0x10000C1DC, symSize: 0x94 }
  - { offset: 0x1C48D, size: 0x8, addend: 0x0, symName: __ZNSt12_Vector_baseISt6vectorISt4pairI11IndexTripledESaIS3_EESaIS5_EE17_Vector_impl_dataC1Ev, symObjAddr: 0x39B4, symBinAddr: 0x10000C1B0, symSize: 0x2C }
  - { offset: 0x1C4C5, size: 0x8, addend: 0x0, symName: __ZNSt12_Vector_baseISt5arrayIdLm3EESaIS1_EE13_M_deallocateEPS1_m, symObjAddr: 0x3930, symBinAddr: 0x10000C158, symSize: 0x58 }
  - { offset: 0x1C563, size: 0x8, addend: 0x0, symName: __ZNSt12_Vector_baseISt5arrayIdLm3EESaIS1_EE17_Vector_impl_dataC2EOS4_, symObjAddr: 0x38C0, symBinAddr: 0x10000C0E8, symSize: 0x70 }
  - { offset: 0x1C60F, size: 0x8, addend: 0x0, symName: __ZNSt12_Vector_baseISt5arrayIdLm3EESaIS1_EE19_M_get_Tp_allocatorEv, symObjAddr: 0x38AC, symBinAddr: 0x10000C0D4, symSize: 0x14 }
  - { offset: 0x1C637, size: 0x8, addend: 0x0, symName: __ZNSt6vectorISt5arrayIdLm3EESaIS1_EE18_M_fill_initializeEmRKS1_, symObjAddr: 0x3854, symBinAddr: 0x10000C07C, symSize: 0x58 }
  - { offset: 0x1C6B1, size: 0x8, addend: 0x0, symName: __ZNSt12_Vector_baseISt5arrayIdLm3EESaIS1_EEC2EmRKS2_, symObjAddr: 0x3800, symBinAddr: 0x10000C028, symSize: 0x54 }
  - { offset: 0x1C6E1, size: 0x8, addend: 0x0, symName: __ZNSt6vectorISt5arrayIdLm3EESaIS1_EE17_S_check_init_lenEmRKS2_, symObjAddr: 0x377C, symBinAddr: 0x10000BFA4, symSize: 0x84 }
  - { offset: 0x1C7A4, size: 0x8, addend: 0x0, symName: __ZNSt15__new_allocatorISt5arrayIdLm3EEED2Ev, symObjAddr: 0x3768, symBinAddr: 0x10000BF90, symSize: 0x14 }
  - { offset: 0x1C7FC, size: 0x8, addend: 0x0, symName: __ZNSt6vectorIdSaIdEE14_M_fill_assignEmRKd, symObjAddr: 0x34D4, symBinAddr: 0x10000BD6C, symSize: 0x224 }
  - { offset: 0x1CAA1, size: 0x8, addend: 0x0, symName: __ZNSt12_Vector_baseIdSaIdEE17_Vector_impl_dataC1Ev, symObjAddr: 0x3428, symBinAddr: 0x10000BD40, symSize: 0x2C }
  - { offset: 0x1CAC5, size: 0x8, addend: 0x0, symName: __ZNSt5arrayIdLm3EE3endEv, symObjAddr: 0x3328, symBinAddr: 0x10000BD20, symSize: 0x20 }
  - { offset: 0x1CB0E, size: 0x8, addend: 0x0, symName: __ZNSt5arrayIdLm3EE5beginEv, symObjAddr: 0x330C, symBinAddr: 0x10000BD04, symSize: 0x1C }
  - { offset: 0x1CB7C, size: 0x8, addend: 0x0, symName: __ZNSt6vectorISt5arrayIdLm3EESaIS1_EEC1ERKS3_, symObjAddr: 0x31F8, symBinAddr: 0x10000BBF0, symSize: 0x114 }
  - { offset: 0x1CC92, size: 0x8, addend: 0x0, symName: __ZNSt6vectorISt5arrayIdLm3EESaIS1_EE3endEv, symObjAddr: 0x31C8, symBinAddr: 0x10000BBC0, symSize: 0x30 }
  - { offset: 0x1CCE1, size: 0x8, addend: 0x0, symName: __ZNSt6vectorISt5arrayIdLm3EESaIS1_EE5beginEv, symObjAddr: 0x319C, symBinAddr: 0x10000BB94, symSize: 0x2C }
  - { offset: 0x1CDAA, size: 0x8, addend: 0x0, symName: __ZNSt4pairISt6vectorIdSaIdEES0_IS0_IS_I11IndexTripledESaIS4_EESaIS6_EEEC1IS2_S8_Lb1EEEOT_OT0_, symObjAddr: 0x2F54, symBinAddr: 0x10000BB48, symSize: 0x4C }
  - { offset: 0x1CE78, size: 0x8, addend: 0x0, symName: __ZNSt6vectorIS_ISt4pairI11IndexTripledESaIS2_EESaIS4_EEaSEOS6_, symObjAddr: 0x2EC8, symBinAddr: 0x10000BB0C, symSize: 0x3C }
  - { offset: 0x1CEE3, size: 0x8, addend: 0x0, symName: __ZNSt6vectorIdSaIdEEaSEOS1_, symObjAddr: 0x2E8C, symBinAddr: 0x10000BAD0, symSize: 0x3C }
  - { offset: 0x1CF7A, size: 0x8, addend: 0x0, symName: __ZNSt12_Vector_baseISt6vectorISt4pairI11IndexTripledESaIS3_EESaIS5_EE12_Vector_implC1Ev, symObjAddr: 0x2D28, symBinAddr: 0x10000BA98, symSize: 0x38 }
  - { offset: 0x1CFF8, size: 0x8, addend: 0x0, symName: __ZNSt12_Vector_baseISt5arrayIdLm3EESaIS1_EED2Ev, symObjAddr: 0x2CCC, symBinAddr: 0x10000BA3C, symSize: 0x5C }
  - { offset: 0x1D040, size: 0x8, addend: 0x0, symName: __ZNSt12_Vector_baseISt5arrayIdLm3EESaIS1_EE12_Vector_implC1EOS4_, symObjAddr: 0x2C6C, symBinAddr: 0x10000B9DC, symSize: 0x60 }
  - { offset: 0x1D100, size: 0x8, addend: 0x0, symName: __ZNSt6vectorISt5arrayIdLm3EESaIS1_EEixEm, symObjAddr: 0x2BDC, symBinAddr: 0x10000B94C, symSize: 0x90 }
  - { offset: 0x1D153, size: 0x8, addend: 0x0, symName: __ZNKSt5arrayISt6vectorIdSaIdEELm3EEixEm, symObjAddr: 0x2B60, symBinAddr: 0x10000B8D0, symSize: 0x7C }
  - { offset: 0x1D1DA, size: 0x8, addend: 0x0, symName: __ZNKSt6vectorIS_ISt4pairI11IndexTripledESaIS2_EESaIS4_EEixEm, symObjAddr: 0x2A74, symBinAddr: 0x10000B840, symSize: 0x90 }
  - { offset: 0x1D247, size: 0x8, addend: 0x0, symName: __ZNSt6vectorISt5arrayIdLm3EESaIS1_EED1Ev, symObjAddr: 0x2A18, symBinAddr: 0x10000B7E4, symSize: 0x5C }
  - { offset: 0x1D2DC, size: 0x8, addend: 0x0, symName: __ZNSt6vectorISt5arrayIdLm3EESaIS1_EEC1EmRKS1_RKS2_, symObjAddr: 0x29A8, symBinAddr: 0x10000B774, symSize: 0x70 }
  - { offset: 0x1D351, size: 0x8, addend: 0x0, symName: __ZNSt6vectorIdSaIdEE6assignEmRKd, symObjAddr: 0x27C4, symBinAddr: 0x10000B744, symSize: 0x30 }
  - { offset: 0x1D399, size: 0x8, addend: 0x0, symName: __ZNSt5arrayISt6vectorIdSaIdEELm3EEixEm, symObjAddr: 0x2748, symBinAddr: 0x10000B6C8, symSize: 0x7C }
  - { offset: 0x1D427, size: 0x8, addend: 0x0, symName: __ZNSt12_Vector_baseIdSaIdEE12_Vector_implC1Ev, symObjAddr: 0x2664, symBinAddr: 0x10000B690, symSize: 0x38 }
  - { offset: 0x1D494, size: 0x8, addend: 0x0, symName: __Z8rk4_stepSt6vectorISt5arrayIdLm3EESaIS1_EES3_S_IdSaIdEEdidRKNSt7__cxx1112basic_stringIcSt11char_traitsIcESaIcEEESD_bdd, symObjAddr: 0x152C, symBinAddr: 0x10000A5B0, symSize: 0x10E0 }
  - { offset: 0x1E3E7, size: 0x8, addend: 0x0, symName: __Z20compute_accelerationRKSt6vectorISt5arrayIdLm3EESaIS1_EERKS_IdSaIdEEidRKNSt7__cxx1112basic_stringIcSt11char_traitsIcESaIcEEESH_bd, symObjAddr: 0xAB0, symBinAddr: 0x100009B34, symSize: 0x170 }
  - { offset: 0x1E536, size: 0x8, addend: 0x0, symName: __ZN11AccelResultD1Ev, symObjAddr: 0xA84, symBinAddr: 0x100009B08, symSize: 0x2C }
  - { offset: 0x1E578, size: 0x8, addend: 0x0, symName: __ZNSt10__pair_getILm1EE10__move_getISt6vectorIdSaIdEES2_IS2_ISt4pairI11IndexTripledESaIS7_EESaIS9_EEEEOT0_OS5_IT_SC_E, symObjAddr: 0xA64, symBinAddr: 0x100009AE8, symSize: 0x20 }
  - { offset: 0x1E5D4, size: 0x8, addend: 0x0, symName: __ZSt3getILm1ESt6vectorIdSaIdEES0_IS0_ISt4pairI11IndexTripledESaIS5_EESaIS7_EEEONSt13tuple_elementIXT_ES3_IT0_T1_EE4typeEOSD_, symObjAddr: 0xA40, symBinAddr: 0x100009AC4, symSize: 0x24 }
  - { offset: 0x1E65C, size: 0x8, addend: 0x0, symName: __ZNSt10__pair_getILm0EE10__move_getISt6vectorIdSaIdEES2_IS2_ISt4pairI11IndexTripledESaIS7_EESaIS9_EEEEOT_OS5_ISC_T0_E, symObjAddr: 0xA24, symBinAddr: 0x100009AA8, symSize: 0x1C }
  - { offset: 0x1E6DA, size: 0x8, addend: 0x0, symName: __ZSt3getILm0ESt6vectorIdSaIdEES0_IS0_ISt4pairI11IndexTripledESaIS5_EESaIS7_EEEONSt13tuple_elementIXT_ES3_IT0_T1_EE4typeEOSD_, symObjAddr: 0xA00, symBinAddr: 0x100009A84, symSize: 0x24 }
  - { offset: 0x1E74B, size: 0x8, addend: 0x0, symName: __Z11compute_phiRKSt6vectorISt5arrayIdLm3EESaIS1_EERKS_IdSaIdEEidRKNSt7__cxx1112basic_stringIcSt11char_traitsIcESaIcEEESH_d, symObjAddr: 0x6E0, symBinAddr: 0x100009764, symSize: 0x320 }
  - { offset: 0x1E850, size: 0x8, addend: 0x0, symName: __ZNSt4pairISt6vectorIdSaIdEES0_IS0_IS_I11IndexTripledESaIS4_EESaIS6_EEED1Ev, symObjAddr: 0x6B4, symBinAddr: 0x100009738, symSize: 0x2C }
  - { offset: 0x1E88F, size: 0x8, addend: 0x0, symName: __ZN17GridDepositResultaSEOS_, symObjAddr: 0x678, symBinAddr: 0x1000096FC, symSize: 0x3C }
  - { offset: 0x1E8DB, size: 0x8, addend: 0x0, symName: __ZN17GridDepositResultD1Ev, symObjAddr: 0x64C, symBinAddr: 0x1000096D0, symSize: 0x2C }
  - { offset: 0x1E91B, size: 0x8, addend: 0x0, symName: __ZN17GridDepositResultC1Ev, symObjAddr: 0x620, symBinAddr: 0x1000096A4, symSize: 0x2C }
  - { offset: 0x1E957, size: 0x8, addend: 0x0, symName: __ZNSt6vectorIS_ISt4pairI11IndexTripledESaIS2_EESaIS4_EEC1Ev, symObjAddr: 0x600, symBinAddr: 0x100009684, symSize: 0x20 }
  - { offset: 0x1E993, size: 0x8, addend: 0x0, symName: __ZNSt12_Vector_baseISt6vectorISt4pairI11IndexTripledESaIS3_EESaIS5_EEC2Ev, symObjAddr: 0x5E0, symBinAddr: 0x100009664, symSize: 0x20 }
  - { offset: 0x1E9D4, size: 0x8, addend: 0x0, symName: __ZNSt6vectorISt5arrayIdLm3EESaIS1_EEC1EOS3_, symObjAddr: 0x4BC, symBinAddr: 0x10000956C, symSize: 0x28 }
  - { offset: 0x1EA1D, size: 0x8, addend: 0x0, symName: __ZNSt12_Vector_baseISt5arrayIdLm3EESaIS1_EEC2EOS3_, symObjAddr: 0x494, symBinAddr: 0x100009544, symSize: 0x28 }
  - { offset: 0x1EA65, size: 0x8, addend: 0x0, symName: __ZNSt12_Vector_baseISt5arrayIdLm3EESaIS1_EE12_Vector_implD1Ev, symObjAddr: 0x468, symBinAddr: 0x100009518, symSize: 0x2C }
  - { offset: 0x1EB27, size: 0x8, addend: 0x0, symName: __ZNSt5arrayISt6vectorIdSaIdEELm3EED1Ev, symObjAddr: 0x260, symBinAddr: 0x1000093D0, symSize: 0x50 }
  - { offset: 0x1EB67, size: 0x8, addend: 0x0, symName: __ZNSt5arrayISt6vectorIdSaIdEELm3EEC1Ev, symObjAddr: 0x214, symBinAddr: 0x100009384, symSize: 0x4C }
  - { offset: 0x1EBA3, size: 0x8, addend: 0x0, symName: __ZNSt6vectorIdSaIdEEC1Ev, symObjAddr: 0x1F4, symBinAddr: 0x100009364, symSize: 0x20 }
  - { offset: 0x1EBDF, size: 0x8, addend: 0x0, symName: __ZNSt12_Vector_baseIdSaIdEEC2Ev, symObjAddr: 0x1D4, symBinAddr: 0x100009344, symSize: 0x20 }
  - { offset: 0x1EBFF, size: 0x8, addend: 0x0, symName: __ZSt17__size_to_integerm, symObjAddr: 0x0, symBinAddr: 0x100009330, symSize: 0x14 }
  - { offset: 0x20290, size: 0x8, addend: 0x0, symName: __ZSt10_ConstructIdJEEvPT_DpOT0_, symObjAddr: 0x1B90, symBinAddr: 0x10000F728, symSize: 0x4C }
  - { offset: 0x2032B, size: 0x8, addend: 0x0, symName: __ZNSt27__uninitialized_default_n_1ILb1EE18__uninit_default_nIPdmEET_S3_T0_, symObjAddr: 0x1A20, symBinAddr: 0x10000F634, symSize: 0xF4 }
  - { offset: 0x204F4, size: 0x8, addend: 0x0, symName: __ZSt25__uninitialized_default_nIPdmET_S1_T0_, symObjAddr: 0x19C4, symBinAddr: 0x10000F608, symSize: 0x2C }
  - { offset: 0x2054F, size: 0x8, addend: 0x0, symName: __ZSt14__copy_move_a2ILb0EPKdS1_PdET2_T0_T1_S3_, symObjAddr: 0x17E4, symBinAddr: 0x10000F4DC, symSize: 0x12C }
  - { offset: 0x206CF, size: 0x8, addend: 0x0, symName: __ZSt27__uninitialized_default_n_aIPdmdET_S1_T0_RSaIT1_E, symObjAddr: 0x1744, symBinAddr: 0x10000F4B4, symSize: 0x28 }
  - { offset: 0x2081D, size: 0x8, addend: 0x0, symName: __ZNSt6vectorIdSaIdEE21_M_default_initializeEm, symObjAddr: 0x1548, symBinAddr: 0x10000F464, symSize: 0x50 }
  - { offset: 0x208AF, size: 0x8, addend: 0x0, symName: __ZSt12__miter_baseIN9__gnu_cxx17__normal_iteratorIPKdSt6vectorIdSaIdEEEEET_S8_, symObjAddr: 0x1448, symBinAddr: 0x10000F450, symSize: 0x14 }
  - { offset: 0x20977, size: 0x8, addend: 0x0, symName: __ZNSt6vectorIdSaIdEEC1EmRKS0_, symObjAddr: 0x122C, symBinAddr: 0x10000F3E8, symSize: 0x68 }
  - { offset: 0x209CF, size: 0x8, addend: 0x0, symName: __ZSt4copyIN9__gnu_cxx17__normal_iteratorIPKdSt6vectorIdSaIdEEEEPdET0_T_SA_S9_, symObjAddr: 0x118C, symBinAddr: 0x10000F348, symSize: 0xA0 }
  - { offset: 0x20B61, size: 0x8, addend: 0x0, symName: __ZNKSt6vectorIdSaIdEE3endEv, symObjAddr: 0x115C, symBinAddr: 0x10000F318, symSize: 0x30 }
  - { offset: 0x20BB0, size: 0x8, addend: 0x0, symName: __ZNKSt6vectorIdSaIdEE5beginEv, symObjAddr: 0x1130, symBinAddr: 0x10000F2EC, symSize: 0x2C }
  - { offset: 0x20C06, size: 0x8, addend: 0x0, symName: __Z23poisson_solver_isolatedRKSt6vectorIdSaIdEEiddd, symObjAddr: 0xA18, symBinAddr: 0x10000EBD4, symSize: 0x718 }
  - { offset: 0x21049, size: 0x8, addend: 0x0, symName: __Z28poisson_solver_periodic_safeRKSt6vectorIdSaIdEEiddd, symObjAddr: 0x51C, symBinAddr: 0x10000E6D8, symSize: 0x4FC }
  - { offset: 0x2131D, size: 0x8, addend: 0x0, symName: __Z23poisson_solver_periodicRKSt6vectorIdSaIdEEidd, symObjAddr: 0x70, symBinAddr: 0x10000E22C, symSize: 0x4AC }
  - { offset: 0x2CBB5, size: 0x8, addend: 0x0, symName: __ZNKSt13move_iteratorIPSt5arrayIdLm3EEE4baseEv, symObjAddr: 0x6EE4, symBinAddr: 0x100014BFC, symSize: 0x18 }
  - { offset: 0x2CBFF, size: 0x8, addend: 0x0, symName: __ZSt9__fill_a1IPSt5arrayIdLm3EES1_EvT_S3_RKT0_, symObjAddr: 0x6E18, symBinAddr: 0x100014B90, symSize: 0x6C }
  - { offset: 0x2CCAA, size: 0x8, addend: 0x0, symName: __ZSt9__advanceIPSt5arrayIdLm3EElEvRT_T0_St26random_access_iterator_tag, symObjAddr: 0x6DD4, symBinAddr: 0x100014B4C, symSize: 0x44 }
  - { offset: 0x2CD4F, size: 0x8, addend: 0x0, symName: __ZSteqIPSt5arrayIdLm3EEEbRKSt13move_iteratorIT_ES7_, symObjAddr: 0x6D94, symBinAddr: 0x100014B0C, symSize: 0x40 }
  - { offset: 0x2CD90, size: 0x8, addend: 0x0, symName: __ZSt18uninitialized_copyIN9__gnu_cxx17__normal_iteratorIPKdSt6vectorIdSaIdEEEEPdET0_T_SA_S9_, symObjAddr: 0x6CFC, symBinAddr: 0x100014A74, symSize: 0x98 }
  - { offset: 0x2D068, size: 0x8, addend: 0x0, symName: __ZSt10_ConstructISt5arrayIdLm3EEJS1_EEvPT_DpOT0_, symObjAddr: 0x6C68, symBinAddr: 0x1000149FC, symSize: 0x78 }
  - { offset: 0x2D0D9, size: 0x8, addend: 0x0, symName: __ZNKSt13move_iteratorIPSt5arrayIdLm3EEEdeEv, symObjAddr: 0x6C50, symBinAddr: 0x1000149E4, symSize: 0x18 }
  - { offset: 0x2D101, size: 0x8, addend: 0x0, symName: __ZNSt13move_iteratorIPSt5arrayIdLm3EEEppEv, symObjAddr: 0x6C28, symBinAddr: 0x1000149BC, symSize: 0x28 }
  - { offset: 0x2D125, size: 0x8, addend: 0x0, symName: __ZStneIPSt5arrayIdLm3EEEbRKSt13move_iteratorIT_ES7_, symObjAddr: 0x6BFC, symBinAddr: 0x100014990, symSize: 0x2C }
  - { offset: 0x2D188, size: 0x8, addend: 0x0, symName: __ZSt22__uninitialized_copy_aIN9__gnu_cxx17__normal_iteratorIPKdSt6vectorIdSaIdEEEES7_PddET1_T_T0_S9_RSaIT2_E, symObjAddr: 0x6B40, symBinAddr: 0x100014960, symSize: 0x30 }
  - { offset: 0x2D272, size: 0x8, addend: 0x0, symName: __ZSt14__copy_move_a2ILb0EPSt5arrayIdLm3EES2_S2_ET2_T0_T1_S3_, symObjAddr: 0x6970, symBinAddr: 0x1000147EC, symSize: 0x174 }
  - { offset: 0x2D3DE, size: 0x8, addend: 0x0, symName: __ZSt23__copy_move_backward_a2ILb1EPSt5arrayIdLm3EES2_ET1_T0_S4_S3_, symObjAddr: 0x6850, symBinAddr: 0x1000146CC, symSize: 0x120 }
  - { offset: 0x2D57A, size: 0x8, addend: 0x0, symName: __ZSt16__do_uninit_copyISt13move_iteratorIPSt5arrayIdLm3EEES4_S3_ET1_T_T0_S5_, symObjAddr: 0x67A0, symBinAddr: 0x10001461C, symSize: 0xB0 }
  - { offset: 0x2D60E, size: 0x8, addend: 0x0, symName: __ZNSt19_UninitDestroyGuardIPSt4pairIddEvE7releaseEv, symObjAddr: 0x6784, symBinAddr: 0x100014600, symSize: 0x1C }
  - { offset: 0x2D632, size: 0x8, addend: 0x0, symName: __ZSt10_ConstructISt4pairIddEJRKS1_EEvPT_DpOT0_, symObjAddr: 0x671C, symBinAddr: 0x100014598, symSize: 0x68 }
  - { offset: 0x2D6D7, size: 0x8, addend: 0x0, symName: __ZNSt19_UninitDestroyGuardIPSt4pairIddEvED1Ev, symObjAddr: 0x66C4, symBinAddr: 0x100014540, symSize: 0x58 }
  - { offset: 0x2D71F, size: 0x8, addend: 0x0, symName: __ZNSt19_UninitDestroyGuardIPSt4pairIddEvEC1ERS2_, symObjAddr: 0x6690, symBinAddr: 0x10001450C, symSize: 0x34 }
  - { offset: 0x2D798, size: 0x8, addend: 0x0, symName: __ZNSt6vectorIdSaIdEEC1ERKS1_, symObjAddr: 0x64B0, symBinAddr: 0x1000143F8, symSize: 0x114 }
  - { offset: 0x2D89F, size: 0x8, addend: 0x0, symName: __ZNSt23mersenne_twister_engineIjLm32ELm624ELm397ELm31ELj2567483615ELm11ELj4294967295ELm7ELj2636928640ELm15ELj4022730752ELm18ELj1812433253EE11_M_gen_randEv, symObjAddr: 0x619C, symBinAddr: 0x100014238, symSize: 0x1C0 }
  - { offset: 0x2D9CB, size: 0x8, addend: 0x0, symName: __ZSt10_ConstructISt5arrayIdLm3EEJEEvPT_DpOT0_, symObjAddr: 0x6134, symBinAddr: 0x1000141D0, symSize: 0x68 }
  - { offset: 0x2DA58, size: 0x8, addend: 0x0, symName: __ZNSt15__new_allocatorIcE8allocateEmPKv, symObjAddr: 0x60D0, symBinAddr: 0x10001416C, symSize: 0x64 }
  - { offset: 0x2DAE3, size: 0x8, addend: 0x0, symName: __ZSt12__niter_wrapIN9__gnu_cxx17__normal_iteratorIPSt5arrayIdLm3EESt6vectorIS3_SaIS3_EEEES4_ET_S9_T0_, symObjAddr: 0x6058, symBinAddr: 0x1000140F4, symSize: 0x78 }
  - { offset: 0x2DC95, size: 0x8, addend: 0x0, symName: __ZSt18uninitialized_copyISt13move_iteratorIPSt5arrayIdLm3EEES3_ET0_T_S6_S5_, symObjAddr: 0x602C, symBinAddr: 0x1000140C8, symSize: 0x2C }
  - { offset: 0x2DD15, size: 0x8, addend: 0x0, symName: __ZNSt13move_iteratorIPSt5arrayIdLm3EEEC1ES2_, symObjAddr: 0x6004, symBinAddr: 0x1000140A0, symSize: 0x28 }
  - { offset: 0x2DD7E, size: 0x8, addend: 0x0, symName: __ZSt16__do_uninit_copyIPKSt4pairIddES3_PS1_ET1_T_T0_S5_, symObjAddr: 0x5F7C, symBinAddr: 0x100014018, symSize: 0x88 }
  - { offset: 0x2DE12, size: 0x8, addend: 0x0, symName: __ZNSt15__new_allocatorISt4pairIddEE8allocateEmPKv, symObjAddr: 0x5F00, symBinAddr: 0x100013F9C, symSize: 0x7C }
  - { offset: 0x2DE94, size: 0x8, addend: 0x0, symName: __ZNSt15__new_allocatorISt4pairIddEE10deallocateEPS1_m, symObjAddr: 0x5ED0, symBinAddr: 0x100013F6C, symSize: 0x30 }
  - { offset: 0x2DF20, size: 0x8, addend: 0x0, symName: __ZNSt10_Head_baseILm2ESt6vectorIdSaIdEELb0EEC2IRS2_EEOT_, symObjAddr: 0x5E14, symBinAddr: 0x100013F3C, symSize: 0x30 }
  - { offset: 0x2DF72, size: 0x8, addend: 0x0, symName: __ZSt14__relocate_a_1IddENSt9enable_ifIXsrSt24__is_bitwise_relocatableIT_vE5valueEPS2_E4typeES4_S4_S4_RSaIT0_E, symObjAddr: 0x5DB0, symBinAddr: 0x100013ED8, symSize: 0x64 }
  - { offset: 0x2E00A, size: 0x8, addend: 0x0, symName: __ZSt14__relocate_a_1ISt5arrayIdLm3EES1_ENSt9enable_ifIXsrSt24__is_bitwise_relocatableIT_vE5valueEPS4_E4typeES6_S6_S6_RSaIT0_E, symObjAddr: 0x5C90, symBinAddr: 0x100013E48, symSize: 0x90 }
  - { offset: 0x2E0AB, size: 0x8, addend: 0x0, symName: __ZNSt7__cxx1112basic_stringIcSt11char_traitsIcESaIcEE9_M_mutateEmmPKcm, symObjAddr: 0x5910, symBinAddr: 0x100013CF0, symSize: 0x158 }
  - { offset: 0x2E14C, size: 0x8, addend: 0x0, symName: __ZNSt23mersenne_twister_engineIjLm32ELm624ELm397ELm31ELj2567483615ELm11ELj4294967295ELm7ELj2636928640ELm15ELj4022730752ELm18ELj1812433253EEclEv, symObjAddr: 0x585C, symBinAddr: 0x100013C3C, symSize: 0xB4 }
  - { offset: 0x2E181, size: 0x8, addend: 0x0, symName: __ZNSt27__uninitialized_default_n_1ILb1EE18__uninit_default_nIPSt5arrayIdLm3EEmEET_S5_T0_, symObjAddr: 0x5748, symBinAddr: 0x100013B28, symSize: 0x114 }
  - { offset: 0x2E31A, size: 0x8, addend: 0x0, symName: __ZNSt15__new_allocatorIcE10deallocateEPcm, symObjAddr: 0x5720, symBinAddr: 0x100013B00, symSize: 0x28 }
  - { offset: 0x2E378, size: 0x8, addend: 0x0, symName: __ZSt32__make_move_if_noexcept_iteratorISt5arrayIdLm3EESt13move_iteratorIPS1_EET0_PT_, symObjAddr: 0x56FC, symBinAddr: 0x100013ADC, symSize: 0x24 }
  - { offset: 0x2E3B2, size: 0x8, addend: 0x0, symName: __ZSt18uninitialized_copyIN9__gnu_cxx17__normal_iteratorIPSt5arrayIdLm3EESt6vectorIS3_SaIS3_EEEES4_ET0_T_SA_S9_, symObjAddr: 0x5630, symBinAddr: 0x100013A10, symSize: 0xCC }
  - { offset: 0x2E50A, size: 0x8, addend: 0x0, symName: __ZSt9__advanceIN9__gnu_cxx17__normal_iteratorIPSt5arrayIdLm3EESt6vectorIS3_SaIS3_EEEElEvRT_T0_St26random_access_iterator_tag, symObjAddr: 0x55DC, symBinAddr: 0x1000139BC, symSize: 0x54 }
  - { offset: 0x2E5CD, size: 0x8, addend: 0x0, symName: __ZSt12__miter_baseIN9__gnu_cxx17__normal_iteratorIPSt5arrayIdLm3EESt6vectorIS3_SaIS3_EEEEET_S9_, symObjAddr: 0x55C8, symBinAddr: 0x1000139A8, symSize: 0x14 }
  - { offset: 0x2E648, size: 0x8, addend: 0x0, symName: __ZSt12__miter_baseIPSt5arrayIdLm3EEET_S3_, symObjAddr: 0x55B4, symBinAddr: 0x100013994, symSize: 0x14 }
  - { offset: 0x2E679, size: 0x8, addend: 0x0, symName: __ZSt22__uninitialized_copy_aISt13move_iteratorIPSt5arrayIdLm3EEES4_S3_S2_ET1_T_T0_S5_RSaIT2_E, symObjAddr: 0x5584, symBinAddr: 0x100013964, symSize: 0x30 }
  - { offset: 0x2E6ED, size: 0x8, addend: 0x0, symName: __ZSt18make_move_iteratorIPSt5arrayIdLm3EEESt13move_iteratorIT_ES4_, symObjAddr: 0x555C, symBinAddr: 0x10001393C, symSize: 0x28 }
  - { offset: 0x2E73D, size: 0x8, addend: 0x0, symName: __ZSt18uninitialized_copyIPKSt4pairIddEPS1_ET0_T_S6_S5_, symObjAddr: 0x5530, symBinAddr: 0x100013910, symSize: 0x2C }
  - { offset: 0x2E7B5, size: 0x8, addend: 0x0, symName: __ZNSt6vectorISt4pairIddESaIS1_EE11_S_max_sizeERKS2_, symObjAddr: 0x54DC, symBinAddr: 0x1000138BC, symSize: 0x54 }
  - { offset: 0x2E8AE, size: 0x8, addend: 0x0, symName: __ZNSt12_Vector_baseISt4pairIddESaIS1_EE17_Vector_impl_dataC2Ev, symObjAddr: 0x54B0, symBinAddr: 0x100013890, symSize: 0x2C }
  - { offset: 0x2E91F, size: 0x8, addend: 0x0, symName: __ZNSt10_Head_baseILm1ESt6vectorISt5arrayIdLm3EESaIS2_EELb0EEC2IRS4_EEOT_, symObjAddr: 0x536C, symBinAddr: 0x100013860, symSize: 0x30 }
  - { offset: 0x2E9A3, size: 0x8, addend: 0x0, symName: __ZNSt11_Tuple_implILm2EJSt6vectorIdSaIdEEEEC2IRS2_EEOT_, symObjAddr: 0x533C, symBinAddr: 0x100013830, symSize: 0x30 }
  - { offset: 0x2E9F6, size: 0x8, addend: 0x0, symName: __ZSt12__relocate_aIPdS0_SaIdEET0_T_S3_S2_RT1_, symObjAddr: 0x52F0, symBinAddr: 0x1000137E4, symSize: 0x4C }
  - { offset: 0x2EAE7, size: 0x8, addend: 0x0, symName: __ZNKSt6vectorIdSaIdEE8max_sizeEv, symObjAddr: 0x52D0, symBinAddr: 0x1000137C4, symSize: 0x20 }
  - { offset: 0x2EB0B, size: 0x8, addend: 0x0, symName: __ZSt12__relocate_aIPSt5arrayIdLm3EES2_SaIS1_EET0_T_S5_S4_RT1_, symObjAddr: 0x5284, symBinAddr: 0x100013778, symSize: 0x4C }
  - { offset: 0x2EBE8, size: 0x8, addend: 0x0, symName: __ZNKSt6vectorISt5arrayIdLm3EESaIS1_EE8max_sizeEv, symObjAddr: 0x5264, symBinAddr: 0x100013758, symSize: 0x20 }
  - { offset: 0x2EC2E, size: 0x8, addend: 0x0, symName: __ZNSt7__cxx1112basic_stringIcSt11char_traitsIcESaIcEE9_M_appendEPKcm, symObjAddr: 0x5114, symBinAddr: 0x100013690, symSize: 0xC8 }
  - { offset: 0x2EC87, size: 0x8, addend: 0x0, symName: __ZNKSt7__cxx1112basic_stringIcSt11char_traitsIcESaIcEE15_M_check_lengthEmmPKc, symObjAddr: 0x50A0, symBinAddr: 0x10001361C, symSize: 0x74 }
  - { offset: 0x2ECEF, size: 0x8, addend: 0x0, symName: __ZSt18generate_canonicalIdLm53ESt23mersenne_twister_engineIjLm32ELm624ELm397ELm31ELj2567483615ELm11ELj4294967295ELm7ELj2636928640ELm15ELj4022730752ELm18ELj1812433253EEET_RT1_, symObjAddr: 0x4F20, symBinAddr: 0x1000134D8, symSize: 0x144 }
  - { offset: 0x2EDCF, size: 0x8, addend: 0x0, symName: __ZNSt23mersenne_twister_engineIjLm32ELm624ELm397ELm31ELj2567483615ELm11ELj4294967295ELm7ELj2636928640ELm15ELj4022730752ELm18ELj1812433253EE3minEv, symObjAddr: 0x4EE0, symBinAddr: 0x1000134D0, symSize: 0x8 }
  - { offset: 0x2EDE6, size: 0x8, addend: 0x0, symName: __ZNSt8__detail4_ModIjLj624ELj1ELj0ELb1ELb1EE6__calcEj, symObjAddr: 0x4EA8, symBinAddr: 0x100013498, symSize: 0x38 }
  - { offset: 0x2EE1C, size: 0x8, addend: 0x0, symName: __ZNSt8__detail4_ModIjLj0ELj1ELj0ELb1ELb0EE6__calcEj, symObjAddr: 0x4E8C, symBinAddr: 0x10001347C, symSize: 0x1C }
  - { offset: 0x2EE52, size: 0x8, addend: 0x0, symName: __ZSt25__uninitialized_default_nIPSt5arrayIdLm3EEmET_S3_T0_, symObjAddr: 0x4E60, symBinAddr: 0x100013450, symSize: 0x2C }
  - { offset: 0x2EEF7, size: 0x8, addend: 0x0, symName: __ZNSt19__ptr_traits_ptr_toIPKcS0_Lb0EE10pointer_toERS0_, symObjAddr: 0x4E38, symBinAddr: 0x100013428, symSize: 0x28 }
  - { offset: 0x2EF60, size: 0x8, addend: 0x0, symName: __ZNSt7__cxx1112basic_stringIcSt11char_traitsIcESaIcEE11_S_allocateERS3_m, symObjAddr: 0x4DF4, symBinAddr: 0x1000133E4, symSize: 0x44 }
  - { offset: 0x2F031, size: 0x8, addend: 0x0, symName: __ZSt34__uninitialized_move_if_noexcept_aIPSt5arrayIdLm3EES2_SaIS1_EET0_T_S5_S4_RT1_, symObjAddr: 0x4DA4, symBinAddr: 0x100013394, symSize: 0x50 }
  - { offset: 0x2F0A4, size: 0x8, addend: 0x0, symName: __ZSt22__uninitialized_copy_aIN9__gnu_cxx17__normal_iteratorIPSt5arrayIdLm3EESt6vectorIS3_SaIS3_EEEES8_S4_S3_ET1_T_T0_S9_RSaIT2_E, symObjAddr: 0x4D74, symBinAddr: 0x100013364, symSize: 0x30 }
  - { offset: 0x2F155, size: 0x8, addend: 0x0, symName: __ZSt4copyIN9__gnu_cxx17__normal_iteratorIPSt5arrayIdLm3EESt6vectorIS3_SaIS3_EEEES8_ET0_T_SA_S9_, symObjAddr: 0x4CCC, symBinAddr: 0x1000132BC, symSize: 0xA8 }
  - { offset: 0x2F31A, size: 0x8, addend: 0x0, symName: __ZSt22__uninitialized_move_aIPSt5arrayIdLm3EES2_SaIS1_EET0_T_S5_S4_RT1_, symObjAddr: 0x4C7C, symBinAddr: 0x10001326C, symSize: 0x50 }
  - { offset: 0x2F3EF, size: 0x8, addend: 0x0, symName: __ZSt8_DestroyIPSt4pairIddEEvT_S3_, symObjAddr: 0x4C64, symBinAddr: 0x100013254, symSize: 0x18 }
  - { offset: 0x2F42E, size: 0x8, addend: 0x0, symName: __ZSt22__uninitialized_copy_aIPKSt4pairIddES3_PS1_S1_ET1_T_T0_S5_RSaIT2_E, symObjAddr: 0x4C34, symBinAddr: 0x100013224, symSize: 0x30 }
  - { offset: 0x2F4CE, size: 0x8, addend: 0x0, symName: __ZNSt12_Vector_baseISt4pairIddESaIS1_EE11_M_allocateEm, symObjAddr: 0x4BE4, symBinAddr: 0x1000131D4, symSize: 0x50 }
  - { offset: 0x2F52C, size: 0x8, addend: 0x0, symName: __ZNSt6vectorISt4pairIddESaIS1_EE17_S_check_init_lenEmRKS2_, symObjAddr: 0x4B60, symBinAddr: 0x100013150, symSize: 0x84 }
  - { offset: 0x2F5D7, size: 0x8, addend: 0x0, symName: __ZNSt12_Vector_baseISt4pairIddESaIS1_EE13_M_deallocateEPS1_m, symObjAddr: 0x4B08, symBinAddr: 0x1000130F8, symSize: 0x58 }
  - { offset: 0x2F675, size: 0x8, addend: 0x0, symName: __ZNSt12_Vector_baseISt4pairIddESaIS1_EE12_Vector_implC1ERKS2_, symObjAddr: 0x4ABC, symBinAddr: 0x1000130AC, symSize: 0x4C }
  - { offset: 0x2F720, size: 0x8, addend: 0x0, symName: __ZNSt10_Head_baseILm0ESt6vectorISt5arrayIdLm3EESaIS2_EELb0EEC2IRS4_EEOT_, symObjAddr: 0x4A8C, symBinAddr: 0x10001307C, symSize: 0x30 }
  - { offset: 0x2F7BE, size: 0x8, addend: 0x0, symName: __ZNSt11_Tuple_implILm1EJSt6vectorISt5arrayIdLm3EESaIS2_EES0_IdSaIdEEEEC2IRS4_JRS6_EvEEOT_DpOT0_, symObjAddr: 0x4A24, symBinAddr: 0x100013014, symSize: 0x68 }
  - { offset: 0x2F850, size: 0x8, addend: 0x0, symName: __ZNSt6vectorIdSaIdEE11_S_relocateEPdS2_S2_RS0_, symObjAddr: 0x49F0, symBinAddr: 0x100012FE0, symSize: 0x34 }
  - { offset: 0x2F8E0, size: 0x8, addend: 0x0, symName: __ZNSt6vectorIdSaIdEE12_Guard_allocD1Ev, symObjAddr: 0x49A4, symBinAddr: 0x100012F94, symSize: 0x4C }
  - { offset: 0x2F943, size: 0x8, addend: 0x0, symName: __ZNSt6vectorIdSaIdEE12_Guard_allocC1EPdmRSt12_Vector_baseIdS0_E, symObjAddr: 0x4960, symBinAddr: 0x100012F50, symSize: 0x44 }
  - { offset: 0x2F9B8, size: 0x8, addend: 0x0, symName: __ZNKSt6vectorIdSaIdEE12_M_check_lenEmPKc, symObjAddr: 0x47E4, symBinAddr: 0x100012E80, symSize: 0xD0 }
  - { offset: 0x2FA71, size: 0x8, addend: 0x0, symName: __ZNSt6vectorISt5arrayIdLm3EESaIS1_EE11_S_relocateEPS1_S4_S4_RS2_, symObjAddr: 0x47B0, symBinAddr: 0x100012E4C, symSize: 0x34 }
  - { offset: 0x2FB01, size: 0x8, addend: 0x0, symName: __ZNSt6vectorISt5arrayIdLm3EESaIS1_EE12_Guard_allocD1Ev, symObjAddr: 0x4764, symBinAddr: 0x100012E00, symSize: 0x4C }
  - { offset: 0x2FB64, size: 0x8, addend: 0x0, symName: __ZNSt6vectorISt5arrayIdLm3EESaIS1_EE12_Guard_allocC1EPS1_mRSt12_Vector_baseIS1_S2_E, symObjAddr: 0x4720, symBinAddr: 0x100012DBC, symSize: 0x44 }
  - { offset: 0x2FBD9, size: 0x8, addend: 0x0, symName: __ZNKSt6vectorISt5arrayIdLm3EESaIS1_EE12_M_check_lenEmPKc, symObjAddr: 0x4600, symBinAddr: 0x100012CEC, symSize: 0xD0 }
  - { offset: 0x2FCB6, size: 0x8, addend: 0x0, symName: __ZNKSt19normal_distributionIdE10param_type4meanEv, symObjAddr: 0x4474, symBinAddr: 0x100012CD0, symSize: 0x1C }
  - { offset: 0x2FCDE, size: 0x8, addend: 0x0, symName: __ZNKSt19normal_distributionIdE10param_type6stddevEv, symObjAddr: 0x4458, symBinAddr: 0x100012CB4, symSize: 0x1C }
  - { offset: 0x2FD06, size: 0x8, addend: 0x0, symName: __ZNSt7__cxx1112basic_stringIcSt11char_traitsIcESaIcEE6appendEPKcm, symObjAddr: 0x4414, symBinAddr: 0x100012C70, symSize: 0x44 }
  - { offset: 0x2FD73, size: 0x8, addend: 0x0, symName: __ZNSt7__cxx1112basic_stringIcSt11char_traitsIcESaIcEEC1ERKS3_, symObjAddr: 0x43BC, symBinAddr: 0x100012C18, symSize: 0x58 }
  - { offset: 0x2FDD4, size: 0x8, addend: 0x0, symName: __ZNKSt25uniform_real_distributionIdE10param_type1aEv, symObjAddr: 0x438C, symBinAddr: 0x100012BFC, symSize: 0x1C }
  - { offset: 0x2FDFC, size: 0x8, addend: 0x0, symName: __ZNKSt25uniform_real_distributionIdE10param_type1bEv, symObjAddr: 0x4370, symBinAddr: 0x100012BE0, symSize: 0x1C }
  - { offset: 0x2FE24, size: 0x8, addend: 0x0, symName: __ZNSt8__detail8_AdaptorISt23mersenne_twister_engineIjLm32ELm624ELm397ELm31ELj2567483615ELm11ELj4294967295ELm7ELj2636928640ELm15ELj4022730752ELm18ELj1812433253EEdEclEv, symObjAddr: 0x4348, symBinAddr: 0x100012BB8, symSize: 0x28 }
  - { offset: 0x2FE71, size: 0x8, addend: 0x0, symName: __ZNSt8__detail8_AdaptorISt23mersenne_twister_engineIjLm32ELm624ELm397ELm31ELj2567483615ELm11ELj4294967295ELm7ELj2636928640ELm15ELj4022730752ELm18ELj1812433253EEdEC1ERS2_, symObjAddr: 0x4324, symBinAddr: 0x100012B94, symSize: 0x24 }
  - { offset: 0x2FE99, size: 0x8, addend: 0x0, symName: __ZNSt8__detail5__modIjLj624ELj1ELj0EEET_S1_, symObjAddr: 0x4308, symBinAddr: 0x100012B78, symSize: 0x1C }
  - { offset: 0x2FEEB, size: 0x8, addend: 0x0, symName: __ZNSt8__detail5__modIjLj0ELj1ELj0EEET_S1_, symObjAddr: 0x42EC, symBinAddr: 0x100012B5C, symSize: 0x1C }
  - { offset: 0x2FF3B, size: 0x8, addend: 0x0, symName: __ZSt27__uninitialized_default_n_aIPSt5arrayIdLm3EEmS1_ET_S3_T0_RSaIT1_E, symObjAddr: 0x42AC, symBinAddr: 0x100012B34, symSize: 0x28 }
  - { offset: 0x2FF96, size: 0x8, addend: 0x0, symName: __ZNSt7__cxx1112basic_stringIcSt11char_traitsIcESaIcEE13_S_copy_charsIPKcEEvPcT_S9_, symObjAddr: 0x4150, symBinAddr: 0x100012AEC, symSize: 0x48 }
  - { offset: 0x30035, size: 0x8, addend: 0x0, symName: __ZNKSt7__cxx1112basic_stringIcSt11char_traitsIcESaIcEE13_M_local_dataEv, symObjAddr: 0x409C, symBinAddr: 0x100012ACC, symSize: 0x20 }
  - { offset: 0x30059, size: 0x8, addend: 0x0, symName: __ZNSt7__cxx1112basic_stringIcSt11char_traitsIcESaIcEE7_S_copyEPcPKcm, symObjAddr: 0x4050, symBinAddr: 0x100012A80, symSize: 0x4C }
  - { offset: 0x300A9, size: 0x8, addend: 0x0, symName: __ZNSt7__cxx1112basic_stringIcSt11char_traitsIcESaIcEE9_M_createERmm, symObjAddr: 0x3F5C, symBinAddr: 0x10001298C, symSize: 0xF4 }
  - { offset: 0x300EF, size: 0x8, addend: 0x0, symName: __ZNKSt7__cxx1112basic_stringIcSt11char_traitsIcESaIcEE8capacityEv, symObjAddr: 0x3ED8, symBinAddr: 0x100012908, symSize: 0x84 }
  - { offset: 0x30128, size: 0x8, addend: 0x0, symName: __ZNSt7__cxx1112basic_stringIcSt11char_traitsIcESaIcEE10_M_destroyEm, symObjAddr: 0x3E74, symBinAddr: 0x1000128A4, symSize: 0x64 }
  - { offset: 0x301AE, size: 0x8, addend: 0x0, symName: __ZNSt19__ptr_traits_ptr_toIPccLb0EE10pointer_toERc, symObjAddr: 0x3E4C, symBinAddr: 0x10001287C, symSize: 0x28 }
  - { offset: 0x3021B, size: 0x8, addend: 0x0, symName: __ZNSt6vectorISt5arrayIdLm3EESaIS1_EE15_M_range_insertIN9__gnu_cxx17__normal_iteratorIPS1_S3_EEEEvS8_T_S9_St20forward_iterator_tag, symObjAddr: 0x3900, symBinAddr: 0x100012330, symSize: 0x54C }
  - { offset: 0x3080E, size: 0x8, addend: 0x0, symName: __ZNKSt6vectorISt5arrayIdLm3EESaIS1_EE6cbeginEv, symObjAddr: 0x38D4, symBinAddr: 0x100012304, symSize: 0x2C }
  - { offset: 0x308EB, size: 0x8, addend: 0x0, symName: __ZNSt12_Vector_baseISt4pairIddESaIS1_EE19_M_get_Tp_allocatorEv, symObjAddr: 0x38C0, symBinAddr: 0x1000122F0, symSize: 0x14 }
  - { offset: 0x30913, size: 0x8, addend: 0x0, symName: __ZNSt6vectorISt4pairIddESaIS1_EE21_M_range_initialize_nIPKS1_S6_EEvT_T0_m, symObjAddr: 0x3810, symBinAddr: 0x100012240, symSize: 0xB0 }
  - { offset: 0x309AD, size: 0x8, addend: 0x0, symName: __ZNKSt16initializer_listISt4pairIddEE4sizeEv, symObjAddr: 0x37F8, symBinAddr: 0x100012228, symSize: 0x18 }
  - { offset: 0x309D5, size: 0x8, addend: 0x0, symName: __ZNKSt16initializer_listISt4pairIddEE3endEv, symObjAddr: 0x37C0, symBinAddr: 0x1000121F0, symSize: 0x38 }
  - { offset: 0x309FD, size: 0x8, addend: 0x0, symName: __ZNKSt16initializer_listISt4pairIddEE5beginEv, symObjAddr: 0x37A8, symBinAddr: 0x1000121D8, symSize: 0x18 }
  - { offset: 0x30A3D, size: 0x8, addend: 0x0, symName: __ZNSt12_Vector_baseISt4pairIddESaIS1_EED2Ev, symObjAddr: 0x3758, symBinAddr: 0x100012188, symSize: 0x50 }
  - { offset: 0x30A86, size: 0x8, addend: 0x0, symName: __ZNSt12_Vector_baseISt4pairIddESaIS1_EEC2ERKS2_, symObjAddr: 0x3730, symBinAddr: 0x100012160, symSize: 0x28 }
  - { offset: 0x30ACE, size: 0x8, addend: 0x0, symName: __ZNSt12_Vector_baseISt4pairIddESaIS1_EE12_Vector_implD1Ev, symObjAddr: 0x3704, symBinAddr: 0x100012134, symSize: 0x2C }
  - { offset: 0x30B2B, size: 0x8, addend: 0x0, symName: __ZNSt15__new_allocatorISt4pairIddEED2Ev, symObjAddr: 0x36F0, symBinAddr: 0x100012120, symSize: 0x14 }
  - { offset: 0x30BB5, size: 0x8, addend: 0x0, symName: __ZNSt11_Tuple_implILm0EJSt6vectorISt5arrayIdLm3EESaIS2_EES4_S0_IdSaIdEEEEC2IRS4_JS9_RS6_EvEEOT_DpOT0_, symObjAddr: 0x3678, symBinAddr: 0x1000120A8, symSize: 0x78 }
  - { offset: 0x30CBE, size: 0x8, addend: 0x0, symName: __ZNSt6vectorIdSaIdEE17_M_realloc_appendIJRKdEEEvDpOT_, symObjAddr: 0x3484, symBinAddr: 0x100011EB4, symSize: 0x1F4 }
  - { offset: 0x30F30, size: 0x8, addend: 0x0, symName: __ZNSt6vectorISt5arrayIdLm3EESaIS1_EE17_M_realloc_appendIJRKS1_EEEvDpOT_, symObjAddr: 0x3240, symBinAddr: 0x100011C70, symSize: 0x244 }
  - { offset: 0x311B6, size: 0x8, addend: 0x0, symName: __ZNSt19normal_distributionIdEclISt23mersenne_twister_engineIjLm32ELm624ELm397ELm31ELj2567483615ELm11ELj4294967295ELm7ELj2636928640ELm15ELj4022730752ELm18ELj1812433253EEEEdRT_RKNS0_10param_typeE, symObjAddr: 0x2E98, symBinAddr: 0x100011B20, symSize: 0x150 }
  - { offset: 0x31282, size: 0x8, addend: 0x0, symName: __ZSt12__str_concatINSt7__cxx1112basic_stringIcSt11char_traitsIcESaIcEEEET_PKNS6_10value_typeENS6_9size_typeES9_SA_RKNS6_14allocator_typeE, symObjAddr: 0x2DB8, symBinAddr: 0x100011A40, symSize: 0xE0 }
  - { offset: 0x313C2, size: 0x8, addend: 0x0, symName: __ZNKSt7__cxx1112basic_stringIcSt11char_traitsIcESaIcEE13get_allocatorEv, symObjAddr: 0x2D68, symBinAddr: 0x1000119F0, symSize: 0x50 }
  - { offset: 0x3148A, size: 0x8, addend: 0x0, symName: __ZNSt19normal_distributionIdE10param_typeC1Edd, symObjAddr: 0x2CE8, symBinAddr: 0x100011970, symSize: 0x80 }
  - { offset: 0x314D2, size: 0x8, addend: 0x0, symName: __ZNSt25uniform_real_distributionIdEclISt23mersenne_twister_engineIjLm32ELm624ELm397ELm31ELj2567483615ELm11ELj4294967295ELm7ELj2636928640ELm15ELj4022730752ELm18ELj1812433253EEEEdRT_RKNS0_10param_typeE, symObjAddr: 0x2C20, symBinAddr: 0x100011900, symSize: 0x70 }
  - { offset: 0x31581, size: 0x8, addend: 0x0, symName: __ZNSt25uniform_real_distributionIdE10param_typeC1Edd, symObjAddr: 0x2B98, symBinAddr: 0x100011878, symSize: 0x88 }
  - { offset: 0x315CE, size: 0x8, addend: 0x0, symName: __ZNSt23mersenne_twister_engineIjLm32ELm624ELm397ELm31ELj2567483615ELm11ELj4294967295ELm7ELj2636928640ELm15ELj4022730752ELm18ELj1812433253EE4seedEj, symObjAddr: 0x2ACC, symBinAddr: 0x1000117AC, symSize: 0xCC }
  - { offset: 0x31684, size: 0x8, addend: 0x0, symName: __ZNSt6vectorISt5arrayIdLm3EESaIS1_EE21_M_default_initializeEm, symObjAddr: 0x2A68, symBinAddr: 0x10001175C, symSize: 0x50 }
  - { offset: 0x316D0, size: 0x8, addend: 0x0, symName: __ZNSt7__cxx1112basic_stringIcSt11char_traitsIcESaIcEE12_M_constructIPKcEEvT_S8_St20forward_iterator_tag, symObjAddr: 0x289C, symBinAddr: 0x10001167C, symSize: 0xE0 }
  - { offset: 0x317C5, size: 0x8, addend: 0x0, symName: __ZZNSt7__cxx1112basic_stringIcSt11char_traitsIcESaIcEE12_M_constructIPKcEEvT_S8_St20forward_iterator_tagEN6_GuardC1EPS4_, symObjAddr: 0x2844, symBinAddr: 0x100011624, symSize: 0x24 }
  - { offset: 0x317F5, size: 0x8, addend: 0x0, symName: __ZZNSt7__cxx1112basic_stringIcSt11char_traitsIcESaIcEE12_M_constructIPKcEEvT_S8_St20forward_iterator_tagEN6_GuardD1Ev, symObjAddr: 0x2868, symBinAddr: 0x100011648, symSize: 0x34 }
  - { offset: 0x318F3, size: 0x8, addend: 0x0, symName: __ZNSt7__cxx1112basic_stringIcSt11char_traitsIcESaIcEE12_Alloc_hiderC1EPcRKS3_, symObjAddr: 0x27F4, symBinAddr: 0x1000115D4, symSize: 0x50 }
  - { offset: 0x31991, size: 0x8, addend: 0x0, symName: __ZNSt15__new_allocatorIcED2Ev, symObjAddr: 0x27E0, symBinAddr: 0x1000115C0, symSize: 0x14 }
  - { offset: 0x319E4, size: 0x8, addend: 0x0, symName: __ZNSt7__cxx1112basic_stringIcSt11char_traitsIcESaIcEE9_M_lengthEm, symObjAddr: 0x2750, symBinAddr: 0x10001159C, symSize: 0x24 }
  - { offset: 0x31A1B, size: 0x8, addend: 0x0, symName: __ZNSt7__cxx1112basic_stringIcSt11char_traitsIcESaIcEE11_M_capacityEm, symObjAddr: 0x272C, symBinAddr: 0x100011578, symSize: 0x24 }
  - { offset: 0x31A53, size: 0x8, addend: 0x0, symName: __ZNSt7__cxx1112basic_stringIcSt11char_traitsIcESaIcEE7_M_dataEPc, symObjAddr: 0x2708, symBinAddr: 0x100011554, symSize: 0x24 }
  - { offset: 0x31A8A, size: 0x8, addend: 0x0, symName: __ZNKSt7__cxx1112basic_stringIcSt11char_traitsIcESaIcEE6lengthEv, symObjAddr: 0x26EC, symBinAddr: 0x100011538, symSize: 0x1C }
  - { offset: 0x31AB2, size: 0x8, addend: 0x0, symName: __ZNKSt7__cxx1112basic_stringIcSt11char_traitsIcESaIcEE11_M_is_localEv, symObjAddr: 0x2684, symBinAddr: 0x1000114D0, symSize: 0x68 }
  - { offset: 0x31ADA, size: 0x8, addend: 0x0, symName: __ZNSt7__cxx1112basic_stringIcSt11char_traitsIcESaIcEE16_M_get_allocatorEv, symObjAddr: 0x2670, symBinAddr: 0x1000114BC, symSize: 0x14 }
  - { offset: 0x31B07, size: 0x8, addend: 0x0, symName: __ZNSt7__cxx1112basic_stringIcSt11char_traitsIcESaIcEE7reserveEm, symObjAddr: 0x25C8, symBinAddr: 0x100011414, symSize: 0xA8 }
  - { offset: 0x31B61, size: 0x8, addend: 0x0, symName: __ZNSt7__cxx1112basic_stringIcSt11char_traitsIcESaIcEE10_M_disposeEv, symObjAddr: 0x2580, symBinAddr: 0x1000113CC, symSize: 0x48 }
  - { offset: 0x31B89, size: 0x8, addend: 0x0, symName: __ZNSt7__cxx1112basic_stringIcSt11char_traitsIcESaIcEE13_M_set_lengthEm, symObjAddr: 0x2538, symBinAddr: 0x100011384, symSize: 0x48 }
  - { offset: 0x31BD5, size: 0x8, addend: 0x0, symName: __ZNSt7__cxx1112basic_stringIcSt11char_traitsIcESaIcEE13_M_local_dataEv, symObjAddr: 0x2518, symBinAddr: 0x100011364, symSize: 0x20 }
  - { offset: 0x31BFD, size: 0x8, addend: 0x0, symName: __ZNSt6vectorISt5arrayIdLm3EESaIS1_EE6insertIN9__gnu_cxx17__normal_iteratorIPS1_S3_EEvEES8_NS6_IPKS1_S3_EET_SC_, symObjAddr: 0x2374, symBinAddr: 0x100011254, symSize: 0x110 }
  - { offset: 0x31DCE, size: 0x8, addend: 0x0, symName: __ZNSt6vectorISt4pairIddESaIS1_EE3endEv, symObjAddr: 0x22E8, symBinAddr: 0x100011224, symSize: 0x30 }
  - { offset: 0x31E1D, size: 0x8, addend: 0x0, symName: __ZNSt6vectorISt4pairIddESaIS1_EE5beginEv, symObjAddr: 0x22BC, symBinAddr: 0x1000111F8, symSize: 0x2C }
  - { offset: 0x31E84, size: 0x8, addend: 0x0, symName: __ZNSt6vectorISt4pairIddESaIS1_EED1Ev, symObjAddr: 0x2260, symBinAddr: 0x10001119C, symSize: 0x5C }
  - { offset: 0x31F0C, size: 0x8, addend: 0x0, symName: __ZNSt6vectorISt4pairIddESaIS1_EEC1ESt16initializer_listIS1_ERKS2_, symObjAddr: 0x21E4, symBinAddr: 0x100011120, symSize: 0x7C }
  - { offset: 0x31FB2, size: 0x8, addend: 0x0, symName: __ZNSt4pairIddEC1IddLb1EEEOT_OT0_, symObjAddr: 0x2198, symBinAddr: 0x1000110D4, symSize: 0x4C }
  - { offset: 0x3208D, size: 0x8, addend: 0x0, symName: __ZNSt5tupleIJSt6vectorISt5arrayIdLm3EESaIS2_EES4_S0_IdSaIdEEEEC1IJRS4_S9_RS6_ELb1ELb1EEEDpOT_, symObjAddr: 0x2148, symBinAddr: 0x100011084, symSize: 0x50 }
  - { offset: 0x32159, size: 0x8, addend: 0x0, symName: __ZNSt6vectorIdSaIdEE9push_backERKd, symObjAddr: 0x2068, symBinAddr: 0x100010FA4, symSize: 0xE0 }
  - { offset: 0x3223A, size: 0x8, addend: 0x0, symName: __ZNSt6vectorISt5arrayIdLm3EESaIS1_EE9push_backERKS1_, symObjAddr: 0x1F70, symBinAddr: 0x100010EAC, symSize: 0xF8 }
  - { offset: 0x32333, size: 0x8, addend: 0x0, symName: __ZNSt12_Vector_baseISt5arrayIdLm3EESaIS1_EE12_Vector_implC1Ev, symObjAddr: 0x1E40, symBinAddr: 0x100010E74, symSize: 0x38 }
  - { offset: 0x323C1, size: 0x8, addend: 0x0, symName: __ZNSt19normal_distributionIdEclISt23mersenne_twister_engineIjLm32ELm624ELm397ELm31ELj2567483615ELm11ELj4294967295ELm7ELj2636928640ELm15ELj4022730752ELm18ELj1812433253EEEEdRT_, symObjAddr: 0x1C54, symBinAddr: 0x100010E40, symSize: 0x34 }
  - { offset: 0x323FE, size: 0x8, addend: 0x0, symName: __ZStplIcSt11char_traitsIcESaIcEENSt7__cxx1112basic_stringIT_T0_T1_EEPKS5_RKS8_, symObjAddr: 0x1AB0, symBinAddr: 0x100010D90, symSize: 0xB0 }
  - { offset: 0x324C5, size: 0x8, addend: 0x0, symName: __ZNSt19normal_distributionIdEC1Edd, symObjAddr: 0x19FC, symBinAddr: 0x100010D50, symSize: 0x40 }
  - { offset: 0x324F9, size: 0x8, addend: 0x0, symName: __ZNSt25uniform_real_distributionIdEclISt23mersenne_twister_engineIjLm32ELm624ELm397ELm31ELj2567483615ELm11ELj4294967295ELm7ELj2636928640ELm15ELj4022730752ELm18ELj1812433253EEEEdRT_, symObjAddr: 0x189C, symBinAddr: 0x100010D1C, symSize: 0x34 }
  - { offset: 0x3256C, size: 0x8, addend: 0x0, symName: __ZNSt25uniform_real_distributionIdEC1Edd, symObjAddr: 0x186C, symBinAddr: 0x100010CEC, symSize: 0x30 }
  - { offset: 0x325C5, size: 0x8, addend: 0x0, symName: __ZNSt23mersenne_twister_engineIjLm32ELm624ELm397ELm31ELj2567483615ELm11ELj4294967295ELm7ELj2636928640ELm15ELj4022730752ELm18ELj1812433253EEC1Ej, symObjAddr: 0x1844, symBinAddr: 0x100010CC4, symSize: 0x28 }
  - { offset: 0x32623, size: 0x8, addend: 0x0, symName: __ZNSt6vectorISt5arrayIdLm3EESaIS1_EEC1EmRKS2_, symObjAddr: 0x1780, symBinAddr: 0x100010C5C, symSize: 0x68 }
  - { offset: 0x326C1, size: 0x8, addend: 0x0, symName: __ZNSt7__cxx1112basic_stringIcSt11char_traitsIcESaIcEEC1IS3_EEPKcRKS3_, symObjAddr: 0x16E4, symBinAddr: 0x100010BC0, symSize: 0x9C }
  - { offset: 0x32762, size: 0x8, addend: 0x0, symName: __ZNSt7__cxx1112basic_stringIcSt11char_traitsIcESaIcEED1Ev, symObjAddr: 0x16BC, symBinAddr: 0x100010B98, symSize: 0x28 }
  - { offset: 0x327A2, size: 0x8, addend: 0x0, symName: __ZNSt7__cxx1112basic_stringIcSt11char_traitsIcESaIcEE12_Alloc_hiderD1Ev, symObjAddr: 0x1690, symBinAddr: 0x100010B6C, symSize: 0x2C }
  - { offset: 0x327E7, size: 0x8, addend: 0x0, symName: __ZNKSt7__cxx1112basic_stringIcSt11char_traitsIcESaIcEE5c_strEv, symObjAddr: 0x1674, symBinAddr: 0x100010B50, symSize: 0x1C }
  - { offset: 0x32816, size: 0x8, addend: 0x0, symName: __Z23create_particles_doubleidddRKNSt7__cxx1112basic_stringIcSt11char_traitsIcESaIcEEES6_dbd, symObjAddr: 0xF58, symBinAddr: 0x10001048C, symSize: 0x6C4 }
  - { offset: 0x32D25, size: 0x8, addend: 0x0, symName: __ZNSt10__pair_getILm1EE10__move_getIddEEOT0_OSt4pairIT_S2_E, symObjAddr: 0xF38, symBinAddr: 0x10001046C, symSize: 0x20 }
  - { offset: 0x32D81, size: 0x8, addend: 0x0, symName: __ZSt3getILm1EddEONSt13tuple_elementIXT_ESt4pairIT0_T1_EE4typeEOS4_, symObjAddr: 0xF14, symBinAddr: 0x100010448, symSize: 0x24 }
  - { offset: 0x32E09, size: 0x8, addend: 0x0, symName: __ZNSt10__pair_getILm0EE10__move_getIddEEOT_OSt4pairIS2_T0_E, symObjAddr: 0xEF8, symBinAddr: 0x10001042C, symSize: 0x1C }
  - { offset: 0x32E87, size: 0x8, addend: 0x0, symName: __ZSt3getILm0EddEONSt13tuple_elementIXT_ESt4pairIT0_T1_EE4typeEOS4_, symObjAddr: 0xED4, symBinAddr: 0x100010408, symSize: 0x24 }
  - { offset: 0x32F59, size: 0x8, addend: 0x0, symName: __Z23create_particles_singleidddRKNSt7__cxx1112basic_stringIcSt11char_traitsIcESaIcEEES6_d, symObjAddr: 0xA94, symBinAddr: 0x10000FFC8, symSize: 0x440 }
  - { offset: 0x3321F, size: 0x8, addend: 0x0, symName: __ZNSt11_Tuple_implILm1EJSt6vectorISt5arrayIdLm3EESaIS2_EES0_IdSaIdEEEED2Ev, symObjAddr: 0xA68, symBinAddr: 0x10000FF9C, symSize: 0x2C }
  - { offset: 0x3325F, size: 0x8, addend: 0x0, symName: __ZNSt10_Head_baseILm1ESt6vectorISt5arrayIdLm3EESaIS2_EELb0EED2Ev, symObjAddr: 0xA48, symBinAddr: 0x10000FF7C, symSize: 0x20 }
  - { offset: 0x332A0, size: 0x8, addend: 0x0, symName: __ZNSt11_Tuple_implILm2EJSt6vectorIdSaIdEEEED2Ev, symObjAddr: 0xA28, symBinAddr: 0x10000FF5C, symSize: 0x20 }
  - { offset: 0x332E0, size: 0x8, addend: 0x0, symName: __ZNSt10_Head_baseILm2ESt6vectorIdSaIdEELb0EED2Ev, symObjAddr: 0xA08, symBinAddr: 0x10000FF3C, symSize: 0x20 }
  - { offset: 0x3331C, size: 0x8, addend: 0x0, symName: __ZNSt6vectorISt5arrayIdLm3EESaIS1_EEC1Ev, symObjAddr: 0x97C, symBinAddr: 0x10000FF1C, symSize: 0x20 }
  - { offset: 0x33358, size: 0x8, addend: 0x0, symName: __ZNSt12_Vector_baseISt5arrayIdLm3EESaIS1_EEC2Ev, symObjAddr: 0x95C, symBinAddr: 0x10000FEFC, symSize: 0x20 }
  - { offset: 0x33383, size: 0x8, addend: 0x0, symName: __Z25create_plummer_velocitiesRKSt6vectorIdSaIdEEddRKNSt7__cxx1112basic_stringIcSt11char_traitsIcESaIcEEEbd, symObjAddr: 0x644, symBinAddr: 0x10000FBE4, symSize: 0x318 }
  - { offset: 0x33531, size: 0x8, addend: 0x0, symName: __Z24create_plummer_positionsiddd, symObjAddr: 0x3B8, symBinAddr: 0x10000F958, symSize: 0x28C }
  - { offset: 0x336D0, size: 0x8, addend: 0x0, symName: __ZN12_GLOBAL__N_1L27plummer_velocity_dispersionEdddd, symObjAddr: 0x31C, symBinAddr: 0x10000F8E8, symSize: 0x70 }
  - { offset: 0x33728, size: 0x8, addend: 0x0, symName: __ZNSt13random_deviceclEv, symObjAddr: 0x300, symBinAddr: 0x10000F8CC, symSize: 0x1C }
  - { offset: 0x33768, size: 0x8, addend: 0x0, symName: __ZNSt13random_deviceD1Ev, symObjAddr: 0x2E0, symBinAddr: 0x10000F8AC, symSize: 0x20 }
  - { offset: 0x337A4, size: 0x8, addend: 0x0, symName: __ZNSt13random_deviceC1Ev, symObjAddr: 0x248, symBinAddr: 0x10000F814, symSize: 0x98 }
  - { offset: 0x33842, size: 0x8, addend: 0x0, symName: __ZSt3loge, symObjAddr: 0x224, symBinAddr: 0x10000F7F0, symSize: 0x24 }
  - { offset: 0x3386A, size: 0x8, addend: 0x0, symName: __ZNSt11char_traitsIcE4copyEPcPKcm, symObjAddr: 0x1D0, symBinAddr: 0x10000F79C, symSize: 0x54 }
  - { offset: 0x338B2, size: 0x8, addend: 0x0, symName: __ZNSt11char_traitsIcE6assignERcRKc, symObjAddr: 0x44, symBinAddr: 0x10000F774, symSize: 0x28 }
  - { offset: 0x3AC79, size: 0x8, addend: 0x0, symName: __ZStL8__ioinit, symObjAddr: 0x4ACDB, symBinAddr: 0x100024F68, symSize: 0x0 }
  - { offset: 0x3AF59, size: 0x8, addend: 0x0, symName: __GLOBAL__sub_I_new_main.cpp, symObjAddr: 0x3418, symBinAddr: 0x100015DF0, symSize: 0x14 }
  - { offset: 0x3AF71, size: 0x8, addend: 0x0, symName: __Z41__static_initialization_and_destruction_0v, symObjAddr: 0x33DC, symBinAddr: 0x100015DB4, symSize: 0x3C }
  - { offset: 0x3AF88, size: 0x8, addend: 0x0, symName: __ZNSt10_Head_baseILm2ESt6vectorIdSaIdEELb0EE7_M_headERS3_, symObjAddr: 0x2DF4, symBinAddr: 0x100015DA0, symSize: 0x14 }
  - { offset: 0x3AFAF, size: 0x8, addend: 0x0, symName: __ZNSt10_Head_baseILm2ERSt6vectorIdSaIdEELb0EE7_M_headERS4_, symObjAddr: 0x2DDC, symBinAddr: 0x100015D88, symSize: 0x18 }
  - { offset: 0x3AFFE, size: 0x8, addend: 0x0, symName: __ZNSt10_Head_baseILm2ERSt6vectorIdSaIdEELb0EEC2ES3_, symObjAddr: 0x2DB8, symBinAddr: 0x100015D64, symSize: 0x24 }
  - { offset: 0x3B061, size: 0x8, addend: 0x0, symName: __ZNSt11_Tuple_implILm2EJSt6vectorIdSaIdEEEE7_M_headERS3_, symObjAddr: 0x2D38, symBinAddr: 0x100015D48, symSize: 0x1C }
  - { offset: 0x3B089, size: 0x8, addend: 0x0, symName: __ZNSt11_Tuple_implILm2EJRSt6vectorIdSaIdEEEE7_M_headERS4_, symObjAddr: 0x2D1C, symBinAddr: 0x100015D2C, symSize: 0x1C }
  - { offset: 0x3B0B1, size: 0x8, addend: 0x0, symName: __ZNSt10_Head_baseILm1ESt6vectorISt5arrayIdLm3EESaIS2_EELb0EE7_M_headERS5_, symObjAddr: 0x2D08, symBinAddr: 0x100015D18, symSize: 0x14 }
  - { offset: 0x3B0D8, size: 0x8, addend: 0x0, symName: __ZNSt10_Head_baseILm1ERSt6vectorISt5arrayIdLm3EESaIS2_EELb0EE7_M_headERS6_, symObjAddr: 0x2CF0, symBinAddr: 0x100015D00, symSize: 0x18 }
  - { offset: 0x3B127, size: 0x8, addend: 0x0, symName: __ZNSt10_Head_baseILm1ERSt6vectorISt5arrayIdLm3EESaIS2_EELb0EEC2ES5_, symObjAddr: 0x2CCC, symBinAddr: 0x100015CDC, symSize: 0x24 }
  - { offset: 0x3B178, size: 0x8, addend: 0x0, symName: __ZNSt11_Tuple_implILm2EJRSt6vectorIdSaIdEEEEC2ES3_, symObjAddr: 0x2CA4, symBinAddr: 0x100015CB4, symSize: 0x28 }
  - { offset: 0x3B1A4, size: 0x8, addend: 0x0, symName: __ZNSt12_Vector_baseISt5arrayIdLm3EESaIS1_EE17_Vector_impl_data12_M_copy_dataERKS4_, symObjAddr: 0x2BC4, symBinAddr: 0x100015C6C, symSize: 0x48 }
  - { offset: 0x3B200, size: 0x8, addend: 0x0, symName: __ZNSt12_Vector_baseISt5arrayIdLm3EESaIS1_EEC2ERKS2_, symObjAddr: 0x2B9C, symBinAddr: 0x100015C44, symSize: 0x28 }
  - { offset: 0x3B24C, size: 0x8, addend: 0x0, symName: __ZNSt11_Tuple_implILm2EJRSt6vectorIdSaIdEEEE9_M_assignIS2_EEvOS_ILm2EJT_EE, symObjAddr: 0x2AB8, symBinAddr: 0x100015C00, symSize: 0x44 }
  - { offset: 0x3B2CD, size: 0x8, addend: 0x0, symName: __ZNSt11_Tuple_implILm1EJSt6vectorISt5arrayIdLm3EESaIS2_EES0_IdSaIdEEEE7_M_tailERS7_, symObjAddr: 0x2AA4, symBinAddr: 0x100015BEC, symSize: 0x14 }
  - { offset: 0x3B2F5, size: 0x8, addend: 0x0, symName: __ZNSt11_Tuple_implILm1EJRSt6vectorISt5arrayIdLm3EESaIS2_EERS0_IdSaIdEEEE7_M_tailERS9_, symObjAddr: 0x2A90, symBinAddr: 0x100015BD8, symSize: 0x14 }
  - { offset: 0x3B31D, size: 0x8, addend: 0x0, symName: __ZNSt11_Tuple_implILm1EJSt6vectorISt5arrayIdLm3EESaIS2_EES0_IdSaIdEEEE7_M_headERS7_, symObjAddr: 0x2A70, symBinAddr: 0x100015BB8, symSize: 0x20 }
  - { offset: 0x3B345, size: 0x8, addend: 0x0, symName: __ZNSt11_Tuple_implILm1EJRSt6vectorISt5arrayIdLm3EESaIS2_EERS0_IdSaIdEEEE7_M_headERS9_, symObjAddr: 0x2A50, symBinAddr: 0x100015B98, symSize: 0x20 }
  - { offset: 0x3B36D, size: 0x8, addend: 0x0, symName: __ZNSt10_Head_baseILm0ESt6vectorISt5arrayIdLm3EESaIS2_EELb0EE7_M_headERS5_, symObjAddr: 0x2A3C, symBinAddr: 0x100015B84, symSize: 0x14 }
  - { offset: 0x3B394, size: 0x8, addend: 0x0, symName: __ZNSt10_Head_baseILm0ERSt6vectorISt5arrayIdLm3EESaIS2_EELb0EE7_M_headERS6_, symObjAddr: 0x2A24, symBinAddr: 0x100015B6C, symSize: 0x18 }
  - { offset: 0x3B3E3, size: 0x8, addend: 0x0, symName: __ZNSt10_Head_baseILm0ERSt6vectorISt5arrayIdLm3EESaIS2_EELb0EEC2ES5_, symObjAddr: 0x2A00, symBinAddr: 0x100015B48, symSize: 0x24 }
  - { offset: 0x3B441, size: 0x8, addend: 0x0, symName: __ZNSt11_Tuple_implILm1EJRSt6vectorISt5arrayIdLm3EESaIS2_EERS0_IdSaIdEEEEC2ES5_S8_, symObjAddr: 0x29C4, symBinAddr: 0x100015B0C, symSize: 0x3C }
  - { offset: 0x3B49F, size: 0x8, addend: 0x0, symName: __ZNSt12_Vector_baseISt5arrayIdLm3EESaIS1_EE17_Vector_impl_data12_M_swap_dataERS4_, symObjAddr: 0x27C8, symBinAddr: 0x100015AC0, symSize: 0x4C }
  - { offset: 0x3B50A, size: 0x8, addend: 0x0, symName: __ZNSt6vectorISt5arrayIdLm3EESaIS1_EEC1ERKS2_, symObjAddr: 0x27A0, symBinAddr: 0x100015A98, symSize: 0x28 }
  - { offset: 0x3B536, size: 0x8, addend: 0x0, symName: __ZNKSt12_Vector_baseISt5arrayIdLm3EESaIS1_EE13get_allocatorEv, symObjAddr: 0x2750, symBinAddr: 0x100015A48, symSize: 0x50 }
  - { offset: 0x3B5B1, size: 0x8, addend: 0x0, symName: __ZNSt11_Tuple_implILm1EJRSt6vectorISt5arrayIdLm3EESaIS2_EERS0_IdSaIdEEEE9_M_assignIS4_JS7_EEEvOS_ILm1EJT_DpT0_EE, symObjAddr: 0x241C, symBinAddr: 0x1000159DC, symSize: 0x6C }
  - { offset: 0x3B65F, size: 0x8, addend: 0x0, symName: __ZNSt11_Tuple_implILm0EJSt6vectorISt5arrayIdLm3EESaIS2_EES4_S0_IdSaIdEEEE7_M_tailERS7_, symObjAddr: 0x2408, symBinAddr: 0x1000159C8, symSize: 0x14 }
  - { offset: 0x3B687, size: 0x8, addend: 0x0, symName: __ZNSt11_Tuple_implILm0EJRSt6vectorISt5arrayIdLm3EESaIS2_EES5_RS0_IdSaIdEEEE7_M_tailERS9_, symObjAddr: 0x23F4, symBinAddr: 0x1000159B4, symSize: 0x14 }
  - { offset: 0x3B6D1, size: 0x8, addend: 0x0, symName: __ZNSt11_Tuple_implILm0EJSt6vectorISt5arrayIdLm3EESaIS2_EES4_S0_IdSaIdEEEE7_M_headERS7_, symObjAddr: 0x23D4, symBinAddr: 0x100015994, symSize: 0x20 }
  - { offset: 0x3B6F9, size: 0x8, addend: 0x0, symName: __ZNSt11_Tuple_implILm0EJRSt6vectorISt5arrayIdLm3EESaIS2_EES5_RS0_IdSaIdEEEE7_M_headERS9_, symObjAddr: 0x23B4, symBinAddr: 0x100015974, symSize: 0x20 }
  - { offset: 0x3B764, size: 0x8, addend: 0x0, symName: __ZNSt11_Tuple_implILm0EJRSt6vectorISt5arrayIdLm3EESaIS2_EES5_RS0_IdSaIdEEEEC2ES5_S5_S8_, symObjAddr: 0x2370, symBinAddr: 0x100015930, symSize: 0x44 }
  - { offset: 0x3B7A0, size: 0x8, addend: 0x0, symName: __ZNSt6vectorISt5arrayIdLm3EESaIS1_EE14_M_move_assignEOS3_St17integral_constantIbLb1EE, symObjAddr: 0x1F50, symBinAddr: 0x10001589C, symSize: 0x94 }
  - { offset: 0x3B83D, size: 0x8, addend: 0x0, symName: __ZNSt11_Tuple_implILm0EJRSt6vectorISt5arrayIdLm3EESaIS2_EES5_RS0_IdSaIdEEEE9_M_assignIS4_JS4_S7_EEEvOS_ILm0EJT_DpT0_EE, symObjAddr: 0x1C70, symBinAddr: 0x100015830, symSize: 0x6C }
  - { offset: 0x3B93E, size: 0x8, addend: 0x0, symName: __ZNSt5tupleIJRSt6vectorISt5arrayIdLm3EESaIS2_EES5_RS0_IdSaIdEEEEC1ILb1ELb1EEES5_S5_S8_, symObjAddr: 0x1C38, symBinAddr: 0x1000157F8, symSize: 0x38 }
  - { offset: 0x3B99D, size: 0x8, addend: 0x0, symName: __ZNSt12_Vector_baseISt5arrayIdLm3EESaIS1_EE17_Vector_impl_dataC1Ev, symObjAddr: 0x1AB4, symBinAddr: 0x1000157CC, symSize: 0x2C }
  - { offset: 0x3BA19, size: 0x8, addend: 0x0, symName: __ZNSt6vectorISt5arrayIdLm3EESaIS1_EEaSEOS3_, symObjAddr: 0x1628, symBinAddr: 0x100015790, symSize: 0x3C }
  - { offset: 0x3BA84, size: 0x8, addend: 0x0, symName: __ZNSt5tupleIJRSt6vectorISt5arrayIdLm3EESaIS2_EES5_RS0_IdSaIdEEEEaSIJS4_S4_S7_EEENSt9enable_ifIXcl12__assignableIDpT_EEERS9_E4typeEOS_IJSD_EE, symObjAddr: 0x11D8, symBinAddr: 0x100015760, symSize: 0x30 }
  - { offset: 0x3BAEF, size: 0x8, addend: 0x0, symName: __ZSt3tieIJSt6vectorISt5arrayIdLm3EESaIS2_EES4_S0_IdSaIdEEEESt5tupleIJDpRT_EESA_, symObjAddr: 0x1198, symBinAddr: 0x100015720, symSize: 0x40 }
  - { offset: 0x3BB82, size: 0x8, addend: 0x0, symName: _main, symObjAddr: 0x4C8, symBinAddr: 0x100014D6C, symSize: 0x9B4 }
  - { offset: 0x3BFDE, size: 0x8, addend: 0x0, symName: __ZN10StepResultaSEOS_, symObjAddr: 0x464, symBinAddr: 0x100014D08, symSize: 0x64 }
  - { offset: 0x3C02A, size: 0x8, addend: 0x0, symName: __ZN10StepResultD1Ev, symObjAddr: 0x420, symBinAddr: 0x100014CC4, symSize: 0x44 }
  - { offset: 0x3C06A, size: 0x8, addend: 0x0, symName: __ZN10StepResultC1Ev, symObjAddr: 0x3DC, symBinAddr: 0x100014C80, symSize: 0x44 }
  - { offset: 0x3C0B1, size: 0x8, addend: 0x0, symName: __ZNSt5tupleIJSt6vectorISt5arrayIdLm3EESaIS2_EES4_S0_IdSaIdEEEED1Ev, symObjAddr: 0x390, symBinAddr: 0x100014C60, symSize: 0x20 }
  - { offset: 0x3C0F2, size: 0x8, addend: 0x0, symName: __ZNSt11_Tuple_implILm0EJSt6vectorISt5arrayIdLm3EESaIS2_EES4_S0_IdSaIdEEEED2Ev, symObjAddr: 0x364, symBinAddr: 0x100014C34, symSize: 0x2C }
  - { offset: 0x3C132, size: 0x8, addend: 0x0, symName: __ZNSt10_Head_baseILm0ESt6vectorISt5arrayIdLm3EESaIS2_EELb0EED2Ev, symObjAddr: 0x344, symBinAddr: 0x100014C14, symSize: 0x20 }
...
